
/home/hust/ics2018/nexus-am/tests/cputest/build/fact-x86-nemu:     file format elf32-i386


Disassembly of section .text:

00100000 <_start>:
  100000:	bd 00 00 00 00       	mov    $0x0,%ebp
  100005:	bc 00 7c 00 00       	mov    $0x7c00,%esp
  10000a:	e8 11 00 00 00       	call   100020 <_trm_init>
  10000f:	90                   	nop

00100010 <_halt>:
  100010:	f3 0f 1e fb          	endbr32 
  100014:	55                   	push   %ebp
  100015:	89 e5                	mov    %esp,%ebp
  100017:	8b 45 08             	mov    0x8(%ebp),%eax
  10001a:	d6                   	(bad)  
  10001b:	eb fe                	jmp    10001b <_halt+0xb>
  10001d:	66 90                	xchg   %ax,%ax
  10001f:	90                   	nop

00100020 <_trm_init>:
  100020:	f3 0f 1e fb          	endbr32 
  100024:	55                   	push   %ebp
  100025:	89 e5                	mov    %esp,%ebp
  100027:	83 ec 08             	sub    $0x8,%esp
  10002a:	e8 49 00 00 00       	call   100078 <main>
  10002f:	d6                   	(bad)  
  100030:	eb fe                	jmp    100030 <_trm_init+0x10>
  100032:	66 90                	xchg   %ax,%ax

00100034 <nemu_assert>:
  100034:	f3 0f 1e fb          	endbr32 
  100038:	55                   	push   %ebp
  100039:	89 e5                	mov    %esp,%ebp
  10003b:	83 ec 08             	sub    $0x8,%esp
  10003e:	8b 45 08             	mov    0x8(%ebp),%eax
  100041:	85 c0                	test   %eax,%eax
  100043:	74 02                	je     100047 <nemu_assert+0x13>
  100045:	c9                   	leave  
  100046:	c3                   	ret    
  100047:	83 ec 0c             	sub    $0xc,%esp
  10004a:	6a 01                	push   $0x1
  10004c:	e8 bf ff ff ff       	call   100010 <_halt>
  100051:	8d 76 00             	lea    0x0(%esi),%esi

00100054 <fact>:
  100054:	f3 0f 1e fb          	endbr32 
  100058:	55                   	push   %ebp
  100059:	89 e5                	mov    %esp,%ebp
  10005b:	8b 45 08             	mov    0x8(%ebp),%eax
  10005e:	ba 01 00 00 00       	mov    $0x1,%edx
  100063:	83 f8 01             	cmp    $0x1,%eax
  100066:	76 0b                	jbe    100073 <fact+0x1f>
  100068:	89 c1                	mov    %eax,%ecx
  10006a:	48                   	dec    %eax
  10006b:	0f af d1             	imul   %ecx,%edx
  10006e:	83 f8 01             	cmp    $0x1,%eax
  100071:	75 f5                	jne    100068 <fact+0x14>
  100073:	89 d0                	mov    %edx,%eax
  100075:	5d                   	pop    %ebp
  100076:	c3                   	ret    
  100077:	90                   	nop

00100078 <main>:
  100078:	f3 0f 1e fb          	endbr32 
  10007c:	8d 4c 24 04          	lea    0x4(%esp),%ecx
  100080:	83 e4 f0             	and    $0xfffffff0,%esp
  100083:	ff 71 fc             	pushl  -0x4(%ecx)
  100086:	55                   	push   %ebp
  100087:	89 e5                	mov    %esp,%ebp
  100089:	53                   	push   %ebx
  10008a:	51                   	push   %ecx
  10008b:	31 db                	xor    %ebx,%ebx
  10008d:	ba 01 00 00 00       	mov    $0x1,%edx
  100092:	66 90                	xchg   %ax,%ax
  100094:	89 14 9d 40 01 10 00 	mov    %edx,0x100140(,%ebx,4)
  10009b:	83 ec 0c             	sub    $0xc,%esp
  10009e:	31 c0                	xor    %eax,%eax
  1000a0:	39 14 9d 00 01 10 00 	cmp    %edx,0x100100(,%ebx,4)
  1000a7:	0f 94 c0             	sete   %al
  1000aa:	50                   	push   %eax
  1000ab:	e8 84 ff ff ff       	call   100034 <nemu_assert>
  1000b0:	83 c4 10             	add    $0x10,%esp
  1000b3:	43                   	inc    %ebx
  1000b4:	83 fb 0d             	cmp    $0xd,%ebx
  1000b7:	74 1c                	je     1000d5 <main+0x5d>
  1000b9:	83 fb 01             	cmp    $0x1,%ebx
  1000bc:	74 23                	je     1000e1 <main+0x69>
  1000be:	89 d8                	mov    %ebx,%eax
  1000c0:	ba 01 00 00 00       	mov    $0x1,%edx
  1000c5:	8d 76 00             	lea    0x0(%esi),%esi
  1000c8:	89 c1                	mov    %eax,%ecx
  1000ca:	48                   	dec    %eax
  1000cb:	0f af d1             	imul   %ecx,%edx
  1000ce:	83 f8 01             	cmp    $0x1,%eax
  1000d1:	75 f5                	jne    1000c8 <main+0x50>
  1000d3:	eb bf                	jmp    100094 <main+0x1c>
  1000d5:	31 c0                	xor    %eax,%eax
  1000d7:	8d 65 f8             	lea    -0x8(%ebp),%esp
  1000da:	59                   	pop    %ecx
  1000db:	5b                   	pop    %ebx
  1000dc:	5d                   	pop    %ebp
  1000dd:	8d 61 fc             	lea    -0x4(%ecx),%esp
  1000e0:	c3                   	ret    
  1000e1:	ba 01 00 00 00       	mov    $0x1,%edx
  1000e6:	eb ac                	jmp    100094 <main+0x1c>
