
/home/hust/ics2018/nexus-am/tests/cputest/build/load-store-x86-nemu:     file format elf32-i386


Disassembly of section .text:

00100000 <_start>:
  100000:	bd 00 00 00 00       	mov    $0x0,%ebp
  100005:	bc 00 7c 00 00       	mov    $0x7c00,%esp
  10000a:	e8 11 00 00 00       	call   100020 <_trm_init>
  10000f:	90                   	nop

00100010 <_halt>:
  100010:	f3 0f 1e fb          	endbr32 
  100014:	55                   	push   %ebp
  100015:	89 e5                	mov    %esp,%ebp
  100017:	8b 45 08             	mov    0x8(%ebp),%eax
  10001a:	d6                   	(bad)  
  10001b:	eb fe                	jmp    10001b <_halt+0xb>
  10001d:	66 90                	xchg   %ax,%ax
  10001f:	90                   	nop

00100020 <_trm_init>:
  100020:	f3 0f 1e fb          	endbr32 
  100024:	55                   	push   %ebp
  100025:	89 e5                	mov    %esp,%ebp
  100027:	83 ec 08             	sub    $0x8,%esp
  10002a:	e8 25 00 00 00       	call   100054 <main>
  10002f:	d6                   	(bad)  
  100030:	eb fe                	jmp    100030 <_trm_init+0x10>
  100032:	66 90                	xchg   %ax,%ax

00100034 <nemu_assert>:
  100034:	f3 0f 1e fb          	endbr32 
  100038:	55                   	push   %ebp
  100039:	89 e5                	mov    %esp,%ebp
  10003b:	83 ec 08             	sub    $0x8,%esp
  10003e:	8b 45 08             	mov    0x8(%ebp),%eax
  100041:	85 c0                	test   %eax,%eax
  100043:	74 02                	je     100047 <nemu_assert+0x13>
  100045:	c9                   	leave  
  100046:	c3                   	ret    
  100047:	83 ec 0c             	sub    $0xc,%esp
  10004a:	6a 01                	push   $0x1
  10004c:	e8 bf ff ff ff       	call   100010 <_halt>
  100051:	66 90                	xchg   %ax,%ax
  100053:	90                   	nop

00100054 <main>:
  100054:	f3 0f 1e fb          	endbr32 
  100058:	8d 4c 24 04          	lea    0x4(%esp),%ecx
  10005c:	83 e4 f0             	and    $0xfffffff0,%esp
  10005f:	ff 71 fc             	pushl  -0x4(%ecx)
  100062:	55                   	push   %ebp
  100063:	89 e5                	mov    %esp,%ebp
  100065:	56                   	push   %esi
  100066:	53                   	push   %ebx
  100067:	51                   	push   %ecx
  100068:	83 ec 0c             	sub    $0xc,%esp
  10006b:	31 db                	xor    %ebx,%ebx
  10006d:	8d 76 00             	lea    0x0(%esi),%esi
  100070:	83 ec 0c             	sub    $0xc,%esp
  100073:	0f bf 84 1b e0 01 10 	movswl 0x1001e0(%ebx,%ebx,1),%eax
  10007a:	00 
  10007b:	3b 04 9d c0 01 10 00 	cmp    0x1001c0(,%ebx,4),%eax
  100082:	0f 94 c0             	sete   %al
  100085:	0f b6 c0             	movzbl %al,%eax
  100088:	50                   	push   %eax
  100089:	e8 a6 ff ff ff       	call   100034 <nemu_assert>
  10008e:	83 c4 10             	add    $0x10,%esp
  100091:	43                   	inc    %ebx
  100092:	83 fb 08             	cmp    $0x8,%ebx
  100095:	75 d9                	jne    100070 <main+0x1c>
  100097:	31 db                	xor    %ebx,%ebx
  100099:	8d 76 00             	lea    0x0(%esi),%esi
  10009c:	83 ec 0c             	sub    $0xc,%esp
  10009f:	0f b7 84 1b e0 01 10 	movzwl 0x1001e0(%ebx,%ebx,1),%eax
  1000a6:	00 
  1000a7:	3b 04 9d a0 01 10 00 	cmp    0x1001a0(,%ebx,4),%eax
  1000ae:	0f 94 c0             	sete   %al
  1000b1:	0f b6 c0             	movzbl %al,%eax
  1000b4:	50                   	push   %eax
  1000b5:	e8 7a ff ff ff       	call   100034 <nemu_assert>
  1000ba:	83 c4 10             	add    $0x10,%esp
  1000bd:	43                   	inc    %ebx
  1000be:	83 fb 08             	cmp    $0x8,%ebx
  1000c1:	75 d9                	jne    10009c <main+0x48>
  1000c3:	83 ec 0c             	sub    $0xc,%esp
  1000c6:	a1 60 01 10 00       	mov    0x100160,%eax
  1000cb:	39 05 e1 01 10 00    	cmp    %eax,0x1001e1
  1000d1:	0f 94 c0             	sete   %al
  1000d4:	0f b6 c0             	movzbl %al,%eax
  1000d7:	50                   	push   %eax
  1000d8:	e8 57 ff ff ff       	call   100034 <nemu_assert>
  1000dd:	a1 64 01 10 00       	mov    0x100164,%eax
  1000e2:	39 05 e5 01 10 00    	cmp    %eax,0x1001e5
  1000e8:	0f 94 c0             	sete   %al
  1000eb:	0f b6 c0             	movzbl %al,%eax
  1000ee:	89 04 24             	mov    %eax,(%esp)
  1000f1:	e8 3e ff ff ff       	call   100034 <nemu_assert>
  1000f6:	a1 68 01 10 00       	mov    0x100168,%eax
  1000fb:	39 05 e9 01 10 00    	cmp    %eax,0x1001e9
  100101:	0f 94 c0             	sete   %al
  100104:	0f b6 c0             	movzbl %al,%eax
  100107:	89 04 24             	mov    %eax,(%esp)
  10010a:	e8 25 ff ff ff       	call   100034 <nemu_assert>
  10010f:	83 c4 10             	add    $0x10,%esp
  100112:	be 01 00 00 00       	mov    $0x1,%esi
  100117:	bb 01 00 00 00       	mov    $0x1,%ebx
  10011c:	89 d8                	mov    %ebx,%eax
  10011e:	89 f1                	mov    %esi,%ecx
  100120:	d3 e0                	shl    %cl,%eax
  100122:	f7 d0                	not    %eax
  100124:	66 89 86 df 01 10 00 	mov    %ax,0x1001df(%esi)
  10012b:	83 ec 0c             	sub    $0xc,%esp
  10012e:	0f b7 c0             	movzwl %ax,%eax
  100131:	39 84 36 7e 01 10 00 	cmp    %eax,0x10017e(%esi,%esi,1)
  100138:	0f 94 c0             	sete   %al
  10013b:	0f b6 c0             	movzbl %al,%eax
  10013e:	50                   	push   %eax
  10013f:	e8 f0 fe ff ff       	call   100034 <nemu_assert>
  100144:	83 c4 10             	add    $0x10,%esp
  100147:	83 c6 02             	add    $0x2,%esi
  10014a:	83 fe 11             	cmp    $0x11,%esi
  10014d:	75 cd                	jne    10011c <main+0xc8>
  10014f:	31 c0                	xor    %eax,%eax
  100151:	8d 65 f4             	lea    -0xc(%ebp),%esp
  100154:	59                   	pop    %ecx
  100155:	5b                   	pop    %ebx
  100156:	5e                   	pop    %esi
  100157:	5d                   	pop    %ebp
  100158:	8d 61 fc             	lea    -0x4(%ecx),%esp
  10015b:	c3                   	ret    
