
/home/hust/ics2018/nexus-am/tests/cputest/build/matrix-mul-x86-nemu:     file format elf32-i386


Disassembly of section .text:

00100000 <_start>:
  100000:	bd 00 00 00 00       	mov    $0x0,%ebp
  100005:	bc 00 7c 00 00       	mov    $0x7c00,%esp
  10000a:	e8 11 00 00 00       	call   100020 <_trm_init>
  10000f:	90                   	nop

00100010 <_halt>:
  100010:	f3 0f 1e fb          	endbr32 
  100014:	55                   	push   %ebp
  100015:	89 e5                	mov    %esp,%ebp
  100017:	8b 45 08             	mov    0x8(%ebp),%eax
  10001a:	d6                   	(bad)  
  10001b:	eb fe                	jmp    10001b <_halt+0xb>
  10001d:	66 90                	xchg   %ax,%ax
  10001f:	90                   	nop

00100020 <_trm_init>:
  100020:	f3 0f 1e fb          	endbr32 
  100024:	55                   	push   %ebp
  100025:	89 e5                	mov    %esp,%ebp
  100027:	83 ec 08             	sub    $0x8,%esp
  10002a:	e8 25 00 00 00       	call   100054 <main>
  10002f:	d6                   	(bad)  
  100030:	eb fe                	jmp    100030 <_trm_init+0x10>
  100032:	66 90                	xchg   %ax,%ax

00100034 <nemu_assert>:
  100034:	f3 0f 1e fb          	endbr32 
  100038:	55                   	push   %ebp
  100039:	89 e5                	mov    %esp,%ebp
  10003b:	83 ec 08             	sub    $0x8,%esp
  10003e:	8b 45 08             	mov    0x8(%ebp),%eax
  100041:	85 c0                	test   %eax,%eax
  100043:	74 02                	je     100047 <nemu_assert+0x13>
  100045:	c9                   	leave  
  100046:	c3                   	ret    
  100047:	83 ec 0c             	sub    $0xc,%esp
  10004a:	6a 01                	push   $0x1
  10004c:	e8 bf ff ff ff       	call   100010 <_halt>
  100051:	66 90                	xchg   %ax,%ax
  100053:	90                   	nop

00100054 <main>:
  100054:	f3 0f 1e fb          	endbr32 
  100058:	8d 4c 24 04          	lea    0x4(%esp),%ecx
  10005c:	83 e4 f0             	and    $0xfffffff0,%esp
  10005f:	ff 71 fc             	pushl  -0x4(%ecx)
  100062:	55                   	push   %ebp
  100063:	89 e5                	mov    %esp,%ebp
  100065:	57                   	push   %edi
  100066:	56                   	push   %esi
  100067:	53                   	push   %ebx
  100068:	51                   	push   %ecx
  100069:	83 ec 18             	sub    $0x18,%esp
  10006c:	c7 45 e4 60 04 10 00 	movl   $0x100460,-0x1c(%ebp)
  100073:	be 50 04 10 00       	mov    $0x100450,%esi
  100078:	8b 7d e4             	mov    -0x1c(%ebp),%edi
  10007b:	81 ef 60 04 10 00    	sub    $0x100460,%edi
  100081:	8d 76 00             	lea    0x0(%esi),%esi
  100084:	8d 86 70 fe ff ff    	lea    -0x190(%esi),%eax
  10008a:	8b 4d e4             	mov    -0x1c(%ebp),%ecx
  10008d:	31 db                	xor    %ebx,%ebx
  10008f:	90                   	nop
  100090:	8b 11                	mov    (%ecx),%edx
  100092:	0f af 10             	imul   (%eax),%edx
  100095:	01 d3                	add    %edx,%ebx
  100097:	83 c1 04             	add    $0x4,%ecx
  10009a:	83 c0 28             	add    $0x28,%eax
  10009d:	39 c6                	cmp    %eax,%esi
  10009f:	75 ef                	jne    100090 <main+0x3c>
  1000a1:	89 9f 00 06 10 00    	mov    %ebx,0x100600(%edi)
  1000a7:	83 ec 0c             	sub    $0xc,%esp
  1000aa:	31 c0                	xor    %eax,%eax
  1000ac:	39 9f 20 01 10 00    	cmp    %ebx,0x100120(%edi)
  1000b2:	0f 94 c0             	sete   %al
  1000b5:	50                   	push   %eax
  1000b6:	e8 79 ff ff ff       	call   100034 <nemu_assert>
  1000bb:	c7 04 24 01 00 00 00 	movl   $0x1,(%esp)
  1000c2:	e8 6d ff ff ff       	call   100034 <nemu_assert>
  1000c7:	83 c4 10             	add    $0x10,%esp
  1000ca:	83 c6 04             	add    $0x4,%esi
  1000cd:	83 c7 04             	add    $0x4,%edi
  1000d0:	81 fe 78 04 10 00    	cmp    $0x100478,%esi
  1000d6:	75 ac                	jne    100084 <main+0x30>
  1000d8:	83 ec 0c             	sub    $0xc,%esp
  1000db:	6a 01                	push   $0x1
  1000dd:	e8 52 ff ff ff       	call   100034 <nemu_assert>
  1000e2:	83 c4 10             	add    $0x10,%esp
  1000e5:	83 45 e4 28          	addl   $0x28,-0x1c(%ebp)
  1000e9:	8b 45 e4             	mov    -0x1c(%ebp),%eax
  1000ec:	3d f0 05 10 00       	cmp    $0x1005f0,%eax
  1000f1:	75 80                	jne    100073 <main+0x1f>
  1000f3:	83 ec 0c             	sub    $0xc,%esp
  1000f6:	6a 01                	push   $0x1
  1000f8:	e8 37 ff ff ff       	call   100034 <nemu_assert>
  1000fd:	83 c4 10             	add    $0x10,%esp
  100100:	31 c0                	xor    %eax,%eax
  100102:	8d 65 f0             	lea    -0x10(%ebp),%esp
  100105:	59                   	pop    %ecx
  100106:	5b                   	pop    %ebx
  100107:	5e                   	pop    %esi
  100108:	5f                   	pop    %edi
  100109:	5d                   	pop    %ebp
  10010a:	8d 61 fc             	lea    -0x4(%ecx),%esp
  10010d:	c3                   	ret    
