
/home/hust/ics2018/nexus-am/tests/cputest/build/mov-c-x86-nemu:     file format elf32-i386


Disassembly of section .text:

00100000 <_start>:
  100000:	bd 00 00 00 00       	mov    $0x0,%ebp
  100005:	bc 00 7c 00 00       	mov    $0x7c00,%esp
  10000a:	e8 11 00 00 00       	call   100020 <_trm_init>
  10000f:	90                   	nop

00100010 <_halt>:
  100010:	f3 0f 1e fb          	endbr32 
  100014:	55                   	push   %ebp
  100015:	89 e5                	mov    %esp,%ebp
  100017:	8b 45 08             	mov    0x8(%ebp),%eax
  10001a:	d6                   	(bad)  
  10001b:	eb fe                	jmp    10001b <_halt+0xb>
  10001d:	66 90                	xchg   %ax,%ax
  10001f:	90                   	nop

00100020 <_trm_init>:
  100020:	f3 0f 1e fb          	endbr32 
  100024:	55                   	push   %ebp
  100025:	89 e5                	mov    %esp,%ebp
  100027:	83 ec 08             	sub    $0x8,%esp
  10002a:	e8 25 00 00 00       	call   100054 <main>
  10002f:	d6                   	(bad)  
  100030:	eb fe                	jmp    100030 <_trm_init+0x10>
  100032:	66 90                	xchg   %ax,%ax

00100034 <nemu_assert>:
  100034:	f3 0f 1e fb          	endbr32 
  100038:	55                   	push   %ebp
  100039:	89 e5                	mov    %esp,%ebp
  10003b:	83 ec 08             	sub    $0x8,%esp
  10003e:	8b 45 08             	mov    0x8(%ebp),%eax
  100041:	85 c0                	test   %eax,%eax
  100043:	74 02                	je     100047 <nemu_assert+0x13>
  100045:	c9                   	leave  
  100046:	c3                   	ret    
  100047:	83 ec 0c             	sub    $0xc,%esp
  10004a:	6a 01                	push   $0x1
  10004c:	e8 bf ff ff ff       	call   100010 <_halt>
  100051:	66 90                	xchg   %ax,%ax
  100053:	90                   	nop

00100054 <main>:
  100054:	f3 0f 1e fb          	endbr32 
  100058:	8d 4c 24 04          	lea    0x4(%esp),%ecx
  10005c:	83 e4 f0             	and    $0xfffffff0,%esp
  10005f:	ff 71 fc             	pushl  -0x4(%ecx)
  100062:	55                   	push   %ebp
  100063:	89 e5                	mov    %esp,%ebp
  100065:	51                   	push   %ecx
  100066:	83 ec 10             	sub    $0x10,%esp
  100069:	c7 05 40 01 10 00 00 	movl   $0x0,0x100140
  100070:	00 00 00 
  100073:	c7 05 44 01 10 00 01 	movl   $0x1,0x100144
  10007a:	00 00 00 
  10007d:	c7 05 48 01 10 00 02 	movl   $0x2,0x100148
  100084:	00 00 00 
  100087:	c7 05 4c 01 10 00 03 	movl   $0x3,0x10014c
  10008e:	00 00 00 
  100091:	c7 05 50 01 10 00 04 	movl   $0x4,0x100150
  100098:	00 00 00 
  10009b:	c7 05 20 01 10 00 03 	movl   $0x3,0x100120
  1000a2:	00 00 00 
  1000a5:	c7 05 54 01 10 00 03 	movl   $0x3,0x100154
  1000ac:	00 00 00 
  1000af:	6a 01                	push   $0x1
  1000b1:	e8 7e ff ff ff       	call   100034 <nemu_assert>
  1000b6:	c7 04 24 01 00 00 00 	movl   $0x1,(%esp)
  1000bd:	e8 72 ff ff ff       	call   100034 <nemu_assert>
  1000c2:	c7 04 24 01 00 00 00 	movl   $0x1,(%esp)
  1000c9:	e8 66 ff ff ff       	call   100034 <nemu_assert>
  1000ce:	c7 04 24 01 00 00 00 	movl   $0x1,(%esp)
  1000d5:	e8 5a ff ff ff       	call   100034 <nemu_assert>
  1000da:	c7 04 24 01 00 00 00 	movl   $0x1,(%esp)
  1000e1:	e8 4e ff ff ff       	call   100034 <nemu_assert>
  1000e6:	c7 04 24 01 00 00 00 	movl   $0x1,(%esp)
  1000ed:	e8 42 ff ff ff       	call   100034 <nemu_assert>
  1000f2:	c7 04 24 01 00 00 00 	movl   $0x1,(%esp)
  1000f9:	e8 36 ff ff ff       	call   100034 <nemu_assert>
  1000fe:	83 c4 10             	add    $0x10,%esp
  100101:	31 c0                	xor    %eax,%eax
  100103:	8b 4d fc             	mov    -0x4(%ebp),%ecx
  100106:	c9                   	leave  
  100107:	8d 61 fc             	lea    -0x4(%ecx),%esp
  10010a:	c3                   	ret    
