
/home/hust/ics2018/nexus-am/tests/cputest/build/movsx-x86-nemu:     file format elf32-i386


Disassembly of section .text:

00100000 <_start>:
  100000:	bd 00 00 00 00       	mov    $0x0,%ebp
  100005:	bc 00 7c 00 00       	mov    $0x7c00,%esp
  10000a:	e8 11 00 00 00       	call   100020 <_trm_init>
  10000f:	90                   	nop

00100010 <_halt>:
  100010:	f3 0f 1e fb          	endbr32 
  100014:	55                   	push   %ebp
  100015:	89 e5                	mov    %esp,%ebp
  100017:	8b 45 08             	mov    0x8(%ebp),%eax
  10001a:	d6                   	(bad)  
  10001b:	eb fe                	jmp    10001b <_halt+0xb>
  10001d:	66 90                	xchg   %ax,%ax
  10001f:	90                   	nop

00100020 <_trm_init>:
  100020:	f3 0f 1e fb          	endbr32 
  100024:	55                   	push   %ebp
  100025:	89 e5                	mov    %esp,%ebp
  100027:	83 ec 08             	sub    $0x8,%esp
  10002a:	e8 25 00 00 00       	call   100054 <main>
  10002f:	d6                   	(bad)  
  100030:	eb fe                	jmp    100030 <_trm_init+0x10>
  100032:	66 90                	xchg   %ax,%ax

00100034 <nemu_assert>:
  100034:	f3 0f 1e fb          	endbr32 
  100038:	55                   	push   %ebp
  100039:	89 e5                	mov    %esp,%ebp
  10003b:	83 ec 08             	sub    $0x8,%esp
  10003e:	8b 45 08             	mov    0x8(%ebp),%eax
  100041:	85 c0                	test   %eax,%eax
  100043:	74 02                	je     100047 <nemu_assert+0x13>
  100045:	c9                   	leave  
  100046:	c3                   	ret    
  100047:	83 ec 0c             	sub    $0xc,%esp
  10004a:	6a 01                	push   $0x1
  10004c:	e8 bf ff ff ff       	call   100010 <_halt>
  100051:	66 90                	xchg   %ax,%ax
  100053:	90                   	nop

00100054 <main>:
  100054:	f3 0f 1e fb          	endbr32 
  100058:	8d 4c 24 04          	lea    0x4(%esp),%ecx
  10005c:	83 e4 f0             	and    $0xfffffff0,%esp
  10005f:	ff 71 fc             	pushl  -0x4(%ecx)
  100062:	55                   	push   %ebp
  100063:	89 e5                	mov    %esp,%ebp
  100065:	51                   	push   %ecx
  100066:	83 ec 10             	sub    $0x10,%esp
  100069:	c7 05 a0 01 10 00 00 	movl   $0x0,0x1001a0
  100070:	00 00 00 
  100073:	c7 05 a4 01 10 00 01 	movl   $0x1,0x1001a4
  10007a:	00 00 00 
  10007d:	c7 05 a8 01 10 00 02 	movl   $0x2,0x1001a8
  100084:	00 00 00 
  100087:	c7 05 ac 01 10 00 03 	movl   $0x3,0x1001ac
  10008e:	00 00 00 
  100091:	c7 05 b0 01 10 00 04 	movl   $0x4,0x1001b0
  100098:	00 00 00 
  10009b:	c7 05 80 01 10 00 03 	movl   $0x3,0x100180
  1000a2:	00 00 00 
  1000a5:	c7 05 b4 01 10 00 03 	movl   $0x3,0x1001b4
  1000ac:	00 00 00 
  1000af:	c6 05 c8 01 10 00 61 	movb   $0x61,0x1001c8
  1000b6:	6a 01                	push   $0x1
  1000b8:	e8 77 ff ff ff       	call   100034 <nemu_assert>
  1000bd:	c6 05 c9 01 10 00 61 	movb   $0x61,0x1001c9
  1000c4:	c7 04 24 01 00 00 00 	movl   $0x1,(%esp)
  1000cb:	e8 64 ff ff ff       	call   100034 <nemu_assert>
  1000d0:	c7 05 a0 01 10 00 61 	movl   $0x61,0x1001a0
  1000d7:	00 00 00 
  1000da:	c7 04 24 01 00 00 00 	movl   $0x1,(%esp)
  1000e1:	e8 4e ff ff ff       	call   100034 <nemu_assert>
  1000e6:	c6 05 c9 01 10 00 80 	movb   $0x80,0x1001c9
  1000ed:	c7 05 a0 01 10 00 80 	movl   $0xffffff80,0x1001a0
  1000f4:	ff ff ff 
  1000f7:	c7 04 24 01 00 00 00 	movl   $0x1,(%esp)
  1000fe:	e8 31 ff ff ff       	call   100034 <nemu_assert>
  100103:	c7 04 24 01 00 00 00 	movl   $0x1,(%esp)
  10010a:	e8 25 ff ff ff       	call   100034 <nemu_assert>
  10010f:	c7 04 24 01 00 00 00 	movl   $0x1,(%esp)
  100116:	e8 19 ff ff ff       	call   100034 <nemu_assert>
  10011b:	c7 04 24 01 00 00 00 	movl   $0x1,(%esp)
  100122:	e8 0d ff ff ff       	call   100034 <nemu_assert>
  100127:	c7 04 24 01 00 00 00 	movl   $0x1,(%esp)
  10012e:	e8 01 ff ff ff       	call   100034 <nemu_assert>
  100133:	c7 04 24 01 00 00 00 	movl   $0x1,(%esp)
  10013a:	e8 f5 fe ff ff       	call   100034 <nemu_assert>
  10013f:	c7 04 24 01 00 00 00 	movl   $0x1,(%esp)
  100146:	e8 e9 fe ff ff       	call   100034 <nemu_assert>
  10014b:	c7 04 24 01 00 00 00 	movl   $0x1,(%esp)
  100152:	e8 dd fe ff ff       	call   100034 <nemu_assert>
  100157:	83 c4 10             	add    $0x10,%esp
  10015a:	31 c0                	xor    %eax,%eax
  10015c:	8b 4d fc             	mov    -0x4(%ebp),%ecx
  10015f:	c9                   	leave  
  100160:	8d 61 fc             	lea    -0x4(%ecx),%esp
  100163:	c3                   	ret    
