
/home/hust/ics2018/nexus-am/tests/cputest/build/quick-sort-x86-nemu:     file format elf32-i386


Disassembly of section .text:

00100000 <_start>:
  100000:	bd 00 00 00 00       	mov    $0x0,%ebp
  100005:	bc 00 7c 00 00       	mov    $0x7c00,%esp
  10000a:	e8 11 00 00 00       	call   100020 <_trm_init>
  10000f:	90                   	nop

00100010 <_halt>:
  100010:	f3 0f 1e fb          	endbr32 
  100014:	55                   	push   %ebp
  100015:	89 e5                	mov    %esp,%ebp
  100017:	8b 45 08             	mov    0x8(%ebp),%eax
  10001a:	d6                   	(bad)  
  10001b:	eb fe                	jmp    10001b <_halt+0xb>
  10001d:	66 90                	xchg   %ax,%ax
  10001f:	90                   	nop

00100020 <_trm_init>:
  100020:	f3 0f 1e fb          	endbr32 
  100024:	55                   	push   %ebp
  100025:	89 e5                	mov    %esp,%ebp
  100027:	83 ec 08             	sub    $0x8,%esp
  10002a:	e8 09 01 00 00       	call   100138 <main>
  10002f:	d6                   	(bad)  
  100030:	eb fe                	jmp    100030 <_trm_init+0x10>
  100032:	66 90                	xchg   %ax,%ax

00100034 <nemu_assert>:
  100034:	f3 0f 1e fb          	endbr32 
  100038:	55                   	push   %ebp
  100039:	89 e5                	mov    %esp,%ebp
  10003b:	83 ec 08             	sub    $0x8,%esp
  10003e:	8b 45 08             	mov    0x8(%ebp),%eax
  100041:	85 c0                	test   %eax,%eax
  100043:	74 02                	je     100047 <nemu_assert+0x13>
  100045:	c9                   	leave  
  100046:	c3                   	ret    
  100047:	83 ec 0c             	sub    $0xc,%esp
  10004a:	6a 01                	push   $0x1
  10004c:	e8 bf ff ff ff       	call   100010 <_halt>
  100051:	8d 76 00             	lea    0x0(%esi),%esi

00100054 <partition>:
  100054:	f3 0f 1e fb          	endbr32 
  100058:	55                   	push   %ebp
  100059:	89 e5                	mov    %esp,%ebp
  10005b:	57                   	push   %edi
  10005c:	56                   	push   %esi
  10005d:	53                   	push   %ebx
  10005e:	51                   	push   %ecx
  10005f:	8b 45 0c             	mov    0xc(%ebp),%eax
  100062:	8b 55 10             	mov    0x10(%ebp),%edx
  100065:	8b 7d 08             	mov    0x8(%ebp),%edi
  100068:	8d 34 87             	lea    (%edi,%eax,4),%esi
  10006b:	8b 3e                	mov    (%esi),%edi
  10006d:	89 7d f0             	mov    %edi,-0x10(%ebp)
  100070:	39 d0                	cmp    %edx,%eax
  100072:	7d 2f                	jge    1000a3 <partition+0x4f>
  100074:	8b 7d 08             	mov    0x8(%ebp),%edi
  100077:	8b 0c 97             	mov    (%edi,%edx,4),%ecx
  10007a:	66 90                	xchg   %ax,%ax
  10007c:	8b 7d 08             	mov    0x8(%ebp),%edi
  10007f:	8d 5c 97 fc          	lea    -0x4(%edi,%edx,4),%ebx
  100083:	8b 75 f0             	mov    -0x10(%ebp),%esi
  100086:	66 90                	xchg   %ax,%ax
  100088:	39 ce                	cmp    %ecx,%esi
  10008a:	7d 24                	jge    1000b0 <partition+0x5c>
  10008c:	4a                   	dec    %edx
  10008d:	89 df                	mov    %ebx,%edi
  10008f:	8d 5b fc             	lea    -0x4(%ebx),%ebx
  100092:	8b 4b 04             	mov    0x4(%ebx),%ecx
  100095:	39 c2                	cmp    %eax,%edx
  100097:	7f ef                	jg     100088 <partition+0x34>
  100099:	8b 55 08             	mov    0x8(%ebp),%edx
  10009c:	8d 34 82             	lea    (%edx,%eax,4),%esi
  10009f:	89 0e                	mov    %ecx,(%esi)
  1000a1:	89 0f                	mov    %ecx,(%edi)
  1000a3:	8b 7d f0             	mov    -0x10(%ebp),%edi
  1000a6:	89 3e                	mov    %edi,(%esi)
  1000a8:	5a                   	pop    %edx
  1000a9:	5b                   	pop    %ebx
  1000aa:	5e                   	pop    %esi
  1000ab:	5f                   	pop    %edi
  1000ac:	5d                   	pop    %ebp
  1000ad:	c3                   	ret    
  1000ae:	66 90                	xchg   %ax,%ax
  1000b0:	8b 7d 08             	mov    0x8(%ebp),%edi
  1000b3:	8d 3c 97             	lea    (%edi,%edx,4),%edi
  1000b6:	8d 1c 85 00 00 00 00 	lea    0x0(,%eax,4),%ebx
  1000bd:	8b 75 08             	mov    0x8(%ebp),%esi
  1000c0:	01 de                	add    %ebx,%esi
  1000c2:	89 0e                	mov    %ecx,(%esi)
  1000c4:	39 d0                	cmp    %edx,%eax
  1000c6:	7d d9                	jge    1000a1 <partition+0x4d>
  1000c8:	8b 4d 08             	mov    0x8(%ebp),%ecx
  1000cb:	8d 5c 19 04          	lea    0x4(%ecx,%ebx,1),%ebx
  1000cf:	90                   	nop
  1000d0:	40                   	inc    %eax
  1000d1:	89 de                	mov    %ebx,%esi
  1000d3:	8d 5b 04             	lea    0x4(%ebx),%ebx
  1000d6:	8b 4b fc             	mov    -0x4(%ebx),%ecx
  1000d9:	39 d0                	cmp    %edx,%eax
  1000db:	74 c4                	je     1000a1 <partition+0x4d>
  1000dd:	39 4d f0             	cmp    %ecx,-0x10(%ebp)
  1000e0:	7d ee                	jge    1000d0 <partition+0x7c>
  1000e2:	89 0f                	mov    %ecx,(%edi)
  1000e4:	39 d0                	cmp    %edx,%eax
  1000e6:	7c 94                	jl     10007c <partition+0x28>
  1000e8:	8b 7d 08             	mov    0x8(%ebp),%edi
  1000eb:	8d 34 87             	lea    (%edi,%eax,4),%esi
  1000ee:	eb b3                	jmp    1000a3 <partition+0x4f>

001000f0 <quick_sort>:
  1000f0:	f3 0f 1e fb          	endbr32 
  1000f4:	55                   	push   %ebp
  1000f5:	89 e5                	mov    %esp,%ebp
  1000f7:	57                   	push   %edi
  1000f8:	56                   	push   %esi
  1000f9:	53                   	push   %ebx
  1000fa:	83 ec 0c             	sub    $0xc,%esp
  1000fd:	8b 7d 08             	mov    0x8(%ebp),%edi
  100100:	8b 75 0c             	mov    0xc(%ebp),%esi
  100103:	3b 75 10             	cmp    0x10(%ebp),%esi
  100106:	7d 25                	jge    10012d <quick_sort+0x3d>
  100108:	ff 75 10             	pushl  0x10(%ebp)
  10010b:	56                   	push   %esi
  10010c:	57                   	push   %edi
  10010d:	e8 42 ff ff ff       	call   100054 <partition>
  100112:	89 c3                	mov    %eax,%ebx
  100114:	83 ec 08             	sub    $0x8,%esp
  100117:	8d 40 ff             	lea    -0x1(%eax),%eax
  10011a:	50                   	push   %eax
  10011b:	56                   	push   %esi
  10011c:	57                   	push   %edi
  10011d:	e8 ce ff ff ff       	call   1000f0 <quick_sort>
  100122:	8d 73 01             	lea    0x1(%ebx),%esi
  100125:	83 c4 20             	add    $0x20,%esp
  100128:	3b 75 10             	cmp    0x10(%ebp),%esi
  10012b:	7c db                	jl     100108 <quick_sort+0x18>
  10012d:	8d 65 f4             	lea    -0xc(%ebp),%esp
  100130:	5b                   	pop    %ebx
  100131:	5e                   	pop    %esi
  100132:	5f                   	pop    %edi
  100133:	5d                   	pop    %ebp
  100134:	c3                   	ret    
  100135:	66 90                	xchg   %ax,%ax
  100137:	90                   	nop

00100138 <main>:
  100138:	f3 0f 1e fb          	endbr32 
  10013c:	8d 4c 24 04          	lea    0x4(%esp),%ecx
  100140:	83 e4 f0             	and    $0xfffffff0,%esp
  100143:	ff 71 fc             	pushl  -0x4(%ecx)
  100146:	55                   	push   %ebp
  100147:	89 e5                	mov    %esp,%ebp
  100149:	53                   	push   %ebx
  10014a:	51                   	push   %ecx
  10014b:	50                   	push   %eax
  10014c:	6a 13                	push   $0x13
  10014e:	6a 00                	push   $0x0
  100150:	68 e0 01 10 00       	push   $0x1001e0
  100155:	e8 96 ff ff ff       	call   1000f0 <quick_sort>
  10015a:	83 c4 10             	add    $0x10,%esp
  10015d:	31 db                	xor    %ebx,%ebx
  10015f:	90                   	nop
  100160:	83 ec 0c             	sub    $0xc,%esp
  100163:	31 c0                	xor    %eax,%eax
  100165:	39 1c 9d e0 01 10 00 	cmp    %ebx,0x1001e0(,%ebx,4)
  10016c:	0f 94 c0             	sete   %al
  10016f:	50                   	push   %eax
  100170:	e8 bf fe ff ff       	call   100034 <nemu_assert>
  100175:	83 c4 10             	add    $0x10,%esp
  100178:	43                   	inc    %ebx
  100179:	83 fb 14             	cmp    $0x14,%ebx
  10017c:	75 e2                	jne    100160 <main+0x28>
  10017e:	83 ec 0c             	sub    $0xc,%esp
  100181:	6a 01                	push   $0x1
  100183:	e8 ac fe ff ff       	call   100034 <nemu_assert>
  100188:	83 c4 0c             	add    $0xc,%esp
  10018b:	6a 13                	push   $0x13
  10018d:	6a 00                	push   $0x0
  10018f:	68 e0 01 10 00       	push   $0x1001e0
  100194:	e8 57 ff ff ff       	call   1000f0 <quick_sort>
  100199:	83 c4 10             	add    $0x10,%esp
  10019c:	31 db                	xor    %ebx,%ebx
  10019e:	66 90                	xchg   %ax,%ax
  1001a0:	83 ec 0c             	sub    $0xc,%esp
  1001a3:	31 c0                	xor    %eax,%eax
  1001a5:	39 1c 9d e0 01 10 00 	cmp    %ebx,0x1001e0(,%ebx,4)
  1001ac:	0f 94 c0             	sete   %al
  1001af:	50                   	push   %eax
  1001b0:	e8 7f fe ff ff       	call   100034 <nemu_assert>
  1001b5:	83 c4 10             	add    $0x10,%esp
  1001b8:	43                   	inc    %ebx
  1001b9:	83 fb 14             	cmp    $0x14,%ebx
  1001bc:	75 e2                	jne    1001a0 <main+0x68>
  1001be:	83 ec 0c             	sub    $0xc,%esp
  1001c1:	6a 01                	push   $0x1
  1001c3:	e8 6c fe ff ff       	call   100034 <nemu_assert>
  1001c8:	83 c4 10             	add    $0x10,%esp
  1001cb:	31 c0                	xor    %eax,%eax
  1001cd:	8d 65 f8             	lea    -0x8(%ebp),%esp
  1001d0:	59                   	pop    %ecx
  1001d1:	5b                   	pop    %ebx
  1001d2:	5d                   	pop    %ebp
  1001d3:	8d 61 fc             	lea    -0x4(%ecx),%esp
  1001d6:	c3                   	ret    
