
/home/hust/ics2018/nexus-am/tests/cputest/build/switch-x86-nemu:     file format elf32-i386


Disassembly of section .text:

00100000 <_start>:
  100000:	bd 00 00 00 00       	mov    $0x0,%ebp
  100005:	bc 00 7c 00 00       	mov    $0x7c00,%esp
  10000a:	e8 11 00 00 00       	call   100020 <_trm_init>
  10000f:	90                   	nop

00100010 <_halt>:
  100010:	f3 0f 1e fb          	endbr32 
  100014:	55                   	push   %ebp
  100015:	89 e5                	mov    %esp,%ebp
  100017:	8b 45 08             	mov    0x8(%ebp),%eax
  10001a:	d6                   	(bad)  
  10001b:	eb fe                	jmp    10001b <_halt+0xb>
  10001d:	66 90                	xchg   %ax,%ax
  10001f:	90                   	nop

00100020 <_trm_init>:
  100020:	f3 0f 1e fb          	endbr32 
  100024:	55                   	push   %ebp
  100025:	89 e5                	mov    %esp,%ebp
  100027:	83 ec 08             	sub    $0x8,%esp
  10002a:	e8 45 00 00 00       	call   100074 <main>
  10002f:	d6                   	(bad)  
  100030:	eb fe                	jmp    100030 <_trm_init+0x10>
  100032:	66 90                	xchg   %ax,%ax

00100034 <nemu_assert>:
  100034:	f3 0f 1e fb          	endbr32 
  100038:	55                   	push   %ebp
  100039:	89 e5                	mov    %esp,%ebp
  10003b:	83 ec 08             	sub    $0x8,%esp
  10003e:	8b 45 08             	mov    0x8(%ebp),%eax
  100041:	85 c0                	test   %eax,%eax
  100043:	74 02                	je     100047 <nemu_assert+0x13>
  100045:	c9                   	leave  
  100046:	c3                   	ret    
  100047:	83 ec 0c             	sub    $0xc,%esp
  10004a:	6a 01                	push   $0x1
  10004c:	e8 bf ff ff ff       	call   100010 <_halt>
  100051:	8d 76 00             	lea    0x0(%esi),%esi

00100054 <switch_case>:
  100054:	f3 0f 1e fb          	endbr32 
  100058:	55                   	push   %ebp
  100059:	89 e5                	mov    %esp,%ebp
  10005b:	8b 45 08             	mov    0x8(%ebp),%eax
  10005e:	83 f8 0c             	cmp    $0xc,%eax
  100061:	77 09                	ja     10006c <switch_case+0x18>
  100063:	8b 04 85 00 01 10 00 	mov    0x100100(,%eax,4),%eax
  10006a:	5d                   	pop    %ebp
  10006b:	c3                   	ret    
  10006c:	b8 ff ff ff ff       	mov    $0xffffffff,%eax
  100071:	5d                   	pop    %ebp
  100072:	c3                   	ret    
  100073:	90                   	nop

00100074 <main>:
  100074:	f3 0f 1e fb          	endbr32 
  100078:	8d 4c 24 04          	lea    0x4(%esp),%ecx
  10007c:	83 e4 f0             	and    $0xfffffff0,%esp
  10007f:	ff 71 fc             	pushl  -0x4(%ecx)
  100082:	55                   	push   %ebp
  100083:	89 e5                	mov    %esp,%ebp
  100085:	53                   	push   %ebx
  100086:	51                   	push   %ecx
  100087:	31 db                	xor    %ebx,%ebx
  100089:	b8 ff ff ff ff       	mov    $0xffffffff,%eax
  10008e:	66 90                	xchg   %ax,%ax
  100090:	83 ec 0c             	sub    $0xc,%esp
  100093:	39 04 9d 40 01 10 00 	cmp    %eax,0x100140(,%ebx,4)
  10009a:	0f 94 c0             	sete   %al
  10009d:	0f b6 c0             	movzbl %al,%eax
  1000a0:	50                   	push   %eax
  1000a1:	e8 8e ff ff ff       	call   100034 <nemu_assert>
  1000a6:	83 c4 10             	add    $0x10,%esp
  1000a9:	83 fb 0e             	cmp    $0xe,%ebx
  1000ac:	74 1a                	je     1000c8 <main+0x54>
  1000ae:	83 fb 0d             	cmp    $0xd,%ebx
  1000b1:	74 0d                	je     1000c0 <main+0x4c>
  1000b3:	8b 04 9d 00 01 10 00 	mov    0x100100(,%ebx,4),%eax
  1000ba:	43                   	inc    %ebx
  1000bb:	eb d3                	jmp    100090 <main+0x1c>
  1000bd:	8d 76 00             	lea    0x0(%esi),%esi
  1000c0:	b8 ff ff ff ff       	mov    $0xffffffff,%eax
  1000c5:	43                   	inc    %ebx
  1000c6:	eb c8                	jmp    100090 <main+0x1c>
  1000c8:	83 ec 0c             	sub    $0xc,%esp
  1000cb:	6a 01                	push   $0x1
  1000cd:	e8 62 ff ff ff       	call   100034 <nemu_assert>
  1000d2:	83 c4 10             	add    $0x10,%esp
  1000d5:	31 c0                	xor    %eax,%eax
  1000d7:	8d 65 f8             	lea    -0x8(%ebp),%esp
  1000da:	59                   	pop    %ecx
  1000db:	5b                   	pop    %ebx
  1000dc:	5d                   	pop    %ebp
  1000dd:	8d 61 fc             	lea    -0x4(%ecx),%esp
  1000e0:	c3                   	ret    
