
/home/hust/ics2018/nexus-am/apps/coremark/build/coremark-x86-nemu:     file format elf32-i386


Disassembly of section .text:

00100000 <_start>:
  100000:	bd 00 00 00 00       	mov    $0x0,%ebp
  100005:	bc 00 7c 00 00       	mov    $0x7c00,%esp
  10000a:	e8 70 00 00 00       	call   10007f <_trm_init>

0010000f <inb>:
  10000f:	55                   	push   %ebp
  100010:	89 e5                	mov    %esp,%ebp
  100012:	83 ec 10             	sub    $0x10,%esp
  100015:	8b 45 08             	mov    0x8(%ebp),%eax
  100018:	89 c2                	mov    %eax,%edx
  10001a:	ec                   	in     (%dx),%al
  10001b:	88 45 ff             	mov    %al,-0x1(%ebp)
  10001e:	8a 45 ff             	mov    -0x1(%ebp),%al
  100021:	c9                   	leave  
  100022:	c3                   	ret    

00100023 <outb>:
  100023:	55                   	push   %ebp
  100024:	89 e5                	mov    %esp,%ebp
  100026:	83 ec 04             	sub    $0x4,%esp
  100029:	8b 45 0c             	mov    0xc(%ebp),%eax
  10002c:	88 45 fc             	mov    %al,-0x4(%ebp)
  10002f:	8b 45 08             	mov    0x8(%ebp),%eax
  100032:	89 c2                	mov    %eax,%edx
  100034:	8a 45 fc             	mov    -0x4(%ebp),%al
  100037:	ee                   	out    %al,(%dx)
  100038:	90                   	nop
  100039:	c9                   	leave  
  10003a:	c3                   	ret    

0010003b <_putc>:
  10003b:	55                   	push   %ebp
  10003c:	89 e5                	mov    %esp,%ebp
  10003e:	83 ec 04             	sub    $0x4,%esp
  100041:	8b 45 08             	mov    0x8(%ebp),%eax
  100044:	88 45 fc             	mov    %al,-0x4(%ebp)
  100047:	90                   	nop
  100048:	68 fd 03 00 00       	push   $0x3fd
  10004d:	e8 bd ff ff ff       	call   10000f <inb>
  100052:	83 c4 04             	add    $0x4,%esp
  100055:	0f b6 c0             	movzbl %al,%eax
  100058:	83 e0 20             	and    $0x20,%eax
  10005b:	85 c0                	test   %eax,%eax
  10005d:	74 e9                	je     100048 <_putc+0xd>
  10005f:	8a 45 fc             	mov    -0x4(%ebp),%al
  100062:	0f b6 c0             	movzbl %al,%eax
  100065:	50                   	push   %eax
  100066:	68 f8 03 00 00       	push   $0x3f8
  10006b:	e8 b3 ff ff ff       	call   100023 <outb>
  100070:	83 c4 08             	add    $0x8,%esp
  100073:	90                   	nop
  100074:	c9                   	leave  
  100075:	c3                   	ret    

00100076 <_halt>:
  100076:	55                   	push   %ebp
  100077:	89 e5                	mov    %esp,%ebp
  100079:	8b 45 08             	mov    0x8(%ebp),%eax
  10007c:	d6                   	(bad)  
  10007d:	eb fe                	jmp    10007d <_halt+0x7>

0010007f <_trm_init>:
  10007f:	55                   	push   %ebp
  100080:	89 e5                	mov    %esp,%ebp
  100082:	83 ec 18             	sub    $0x18,%esp
  100085:	e8 e6 00 00 00       	call   100170 <main>
  10008a:	89 45 f4             	mov    %eax,-0xc(%ebp)
  10008d:	83 ec 0c             	sub    $0xc,%esp
  100090:	ff 75 f4             	pushl  -0xc(%ebp)
  100093:	e8 de ff ff ff       	call   100076 <_halt>

00100098 <iterate>:
  100098:	55                   	push   %ebp
  100099:	89 e5                	mov    %esp,%ebp
  10009b:	83 ec 18             	sub    $0x18,%esp
  10009e:	8b 45 08             	mov    0x8(%ebp),%eax
  1000a1:	89 45 f0             	mov    %eax,-0x10(%ebp)
  1000a4:	8b 45 f0             	mov    -0x10(%ebp),%eax
  1000a7:	8b 40 1c             	mov    0x1c(%eax),%eax
  1000aa:	89 45 ec             	mov    %eax,-0x14(%ebp)
  1000ad:	8b 45 f0             	mov    -0x10(%ebp),%eax
  1000b0:	66 c7 40 38 00 00    	movw   $0x0,0x38(%eax)
  1000b6:	8b 45 f0             	mov    -0x10(%ebp),%eax
  1000b9:	66 c7 40 3a 00 00    	movw   $0x0,0x3a(%eax)
  1000bf:	8b 45 f0             	mov    -0x10(%ebp),%eax
  1000c2:	66 c7 40 3c 00 00    	movw   $0x0,0x3c(%eax)
  1000c8:	8b 45 f0             	mov    -0x10(%ebp),%eax
  1000cb:	66 c7 40 3e 00 00    	movw   $0x0,0x3e(%eax)
  1000d1:	c7 45 f4 00 00 00 00 	movl   $0x0,-0xc(%ebp)
  1000d8:	e9 80 00 00 00       	jmp    10015d <iterate+0xc5>
  1000dd:	83 ec 08             	sub    $0x8,%esp
  1000e0:	6a 01                	push   $0x1
  1000e2:	ff 75 f0             	pushl  -0x10(%ebp)
  1000e5:	e8 6b 1c 00 00       	call   101d55 <core_bench_list>
  1000ea:	83 c4 10             	add    $0x10,%esp
  1000ed:	66 89 45 ea          	mov    %ax,-0x16(%ebp)
  1000f1:	8b 45 f0             	mov    -0x10(%ebp),%eax
  1000f4:	8b 40 38             	mov    0x38(%eax),%eax
  1000f7:	0f b7 d0             	movzwl %ax,%edx
  1000fa:	0f b7 45 ea          	movzwl -0x16(%ebp),%eax
  1000fe:	83 ec 08             	sub    $0x8,%esp
  100101:	52                   	push   %edx
  100102:	50                   	push   %eax
  100103:	e8 5a 0c 00 00       	call   100d62 <crcu16>
  100108:	83 c4 10             	add    $0x10,%esp
  10010b:	8b 55 f0             	mov    -0x10(%ebp),%edx
  10010e:	66 89 42 38          	mov    %ax,0x38(%edx)
  100112:	83 ec 08             	sub    $0x8,%esp
  100115:	6a ff                	push   $0xffffffff
  100117:	ff 75 f0             	pushl  -0x10(%ebp)
  10011a:	e8 36 1c 00 00       	call   101d55 <core_bench_list>
  10011f:	83 c4 10             	add    $0x10,%esp
  100122:	66 89 45 ea          	mov    %ax,-0x16(%ebp)
  100126:	8b 45 f0             	mov    -0x10(%ebp),%eax
  100129:	8b 40 38             	mov    0x38(%eax),%eax
  10012c:	0f b7 d0             	movzwl %ax,%edx
  10012f:	0f b7 45 ea          	movzwl -0x16(%ebp),%eax
  100133:	83 ec 08             	sub    $0x8,%esp
  100136:	52                   	push   %edx
  100137:	50                   	push   %eax
  100138:	e8 25 0c 00 00       	call   100d62 <crcu16>
  10013d:	83 c4 10             	add    $0x10,%esp
  100140:	8b 55 f0             	mov    -0x10(%ebp),%edx
  100143:	66 89 42 38          	mov    %ax,0x38(%edx)
  100147:	83 7d f4 00          	cmpl   $0x0,-0xc(%ebp)
  10014b:	75 0d                	jne    10015a <iterate+0xc2>
  10014d:	8b 45 f0             	mov    -0x10(%ebp),%eax
  100150:	8b 40 38             	mov    0x38(%eax),%eax
  100153:	8b 55 f0             	mov    -0x10(%ebp),%edx
  100156:	66 89 42 3a          	mov    %ax,0x3a(%edx)
  10015a:	ff 45 f4             	incl   -0xc(%ebp)
  10015d:	8b 45 f4             	mov    -0xc(%ebp),%eax
  100160:	3b 45 ec             	cmp    -0x14(%ebp),%eax
  100163:	0f 82 74 ff ff ff    	jb     1000dd <iterate+0x45>
  100169:	b8 00 00 00 00       	mov    $0x0,%eax
  10016e:	c9                   	leave  
  10016f:	c3                   	ret    

00100170 <main>:
  100170:	8d 4c 24 04          	lea    0x4(%esp),%ecx
  100174:	83 e4 f0             	and    $0xfffffff0,%esp
  100177:	ff 71 fc             	pushl  -0x4(%ecx)
  10017a:	55                   	push   %ebp
  10017b:	89 e5                	mov    %esp,%ebp
  10017d:	53                   	push   %ebx
  10017e:	51                   	push   %ecx
  10017f:	83 ec 70             	sub    $0x70,%esp
  100182:	89 cb                	mov    %ecx,%ebx
  100184:	66 c7 45 f4 00 00    	movw   $0x0,-0xc(%ebp)
  10018a:	66 c7 45 f2 00 00    	movw   $0x0,-0xe(%ebp)
  100190:	66 c7 45 f0 ff ff    	movw   $0xffff,-0x10(%ebp)
  100196:	66 c7 45 ee 00 00    	movw   $0x0,-0x12(%ebp)
  10019c:	66 c7 45 de 00 00    	movw   $0x0,-0x22(%ebp)
  1001a2:	e8 94 26 00 00       	call   10283b <_ioe_init>
  1001a7:	83 ec 08             	sub    $0x8,%esp
  1001aa:	68 e8 03 00 00       	push   $0x3e8
  1001af:	68 ec 29 10 00       	push   $0x1029ec
  1001b4:	e8 cd 22 00 00       	call   102486 <printf>
  1001b9:	83 c4 10             	add    $0x10,%esp
  1001bc:	83 ec 04             	sub    $0x4,%esp
  1001bf:	ff 73 04             	pushl  0x4(%ebx)
  1001c2:	89 d8                	mov    %ebx,%eax
  1001c4:	50                   	push   %eax
  1001c5:	8d 45 94             	lea    -0x6c(%ebp),%eax
  1001c8:	83 c0 42             	add    $0x42,%eax
  1001cb:	50                   	push   %eax
  1001cc:	e8 9d 22 00 00       	call   10246e <portable_init>
  1001d1:	83 c4 10             	add    $0x10,%esp
  1001d4:	83 ec 0c             	sub    $0xc,%esp
  1001d7:	6a 01                	push   $0x1
  1001d9:	e8 b2 0a 00 00       	call   100c90 <get_seed_32>
  1001de:	83 c4 10             	add    $0x10,%esp
  1001e1:	66 89 45 94          	mov    %ax,-0x6c(%ebp)
  1001e5:	83 ec 0c             	sub    $0xc,%esp
  1001e8:	6a 02                	push   $0x2
  1001ea:	e8 a1 0a 00 00       	call   100c90 <get_seed_32>
  1001ef:	83 c4 10             	add    $0x10,%esp
  1001f2:	66 89 45 96          	mov    %ax,-0x6a(%ebp)
  1001f6:	83 ec 0c             	sub    $0xc,%esp
  1001f9:	6a 03                	push   $0x3
  1001fb:	e8 90 0a 00 00       	call   100c90 <get_seed_32>
  100200:	83 c4 10             	add    $0x10,%esp
  100203:	66 89 45 98          	mov    %ax,-0x68(%ebp)
  100207:	83 ec 0c             	sub    $0xc,%esp
  10020a:	6a 04                	push   $0x4
  10020c:	e8 7f 0a 00 00       	call   100c90 <get_seed_32>
  100211:	83 c4 10             	add    $0x10,%esp
  100214:	89 45 b0             	mov    %eax,-0x50(%ebp)
  100217:	83 ec 0c             	sub    $0xc,%esp
  10021a:	6a 05                	push   $0x5
  10021c:	e8 6f 0a 00 00       	call   100c90 <get_seed_32>
  100221:	83 c4 10             	add    $0x10,%esp
  100224:	89 45 b4             	mov    %eax,-0x4c(%ebp)
  100227:	8b 45 b4             	mov    -0x4c(%ebp),%eax
  10022a:	85 c0                	test   %eax,%eax
  10022c:	75 07                	jne    100235 <main+0xc5>
  10022e:	c7 45 b4 07 00 00 00 	movl   $0x7,-0x4c(%ebp)
  100235:	8b 45 94             	mov    -0x6c(%ebp),%eax
  100238:	66 85 c0             	test   %ax,%ax
  10023b:	75 23                	jne    100260 <main+0xf0>
  10023d:	66 8b 45 96          	mov    -0x6a(%ebp),%ax
  100241:	66 85 c0             	test   %ax,%ax
  100244:	75 1a                	jne    100260 <main+0xf0>
  100246:	8b 45 98             	mov    -0x68(%ebp),%eax
  100249:	66 85 c0             	test   %ax,%ax
  10024c:	75 12                	jne    100260 <main+0xf0>
  10024e:	66 c7 45 94 00 00    	movw   $0x0,-0x6c(%ebp)
  100254:	66 c7 45 96 00 00    	movw   $0x0,-0x6a(%ebp)
  10025a:	66 c7 45 98 66 00    	movw   $0x66,-0x68(%ebp)
  100260:	8b 45 94             	mov    -0x6c(%ebp),%eax
  100263:	66 83 f8 01          	cmp    $0x1,%ax
  100267:	75 23                	jne    10028c <main+0x11c>
  100269:	66 8b 45 96          	mov    -0x6a(%ebp),%ax
  10026d:	66 85 c0             	test   %ax,%ax
  100270:	75 1a                	jne    10028c <main+0x11c>
  100272:	8b 45 98             	mov    -0x68(%ebp),%eax
  100275:	66 85 c0             	test   %ax,%ax
  100278:	75 12                	jne    10028c <main+0x11c>
  10027a:	66 c7 45 94 15 34    	movw   $0x3415,-0x6c(%ebp)
  100280:	66 c7 45 96 15 34    	movw   $0x3415,-0x6a(%ebp)
  100286:	66 c7 45 98 66 00    	movw   $0x66,-0x68(%ebp)
  10028c:	c7 45 9c 00 30 10 00 	movl   $0x103000,-0x64(%ebp)
  100293:	c7 45 ac d0 07 00 00 	movl   $0x7d0,-0x54(%ebp)
  10029a:	66 c7 45 d4 00 00    	movw   $0x0,-0x2c(%ebp)
  1002a0:	66 c7 45 f6 00 00    	movw   $0x0,-0xa(%ebp)
  1002a6:	eb 2c                	jmp    1002d4 <main+0x164>
  1002a8:	0f b7 45 f6          	movzwl -0xa(%ebp),%eax
  1002ac:	ba 01 00 00 00       	mov    $0x1,%edx
  1002b1:	88 c1                	mov    %al,%cl
  1002b3:	d3 e2                	shl    %cl,%edx
  1002b5:	89 d0                	mov    %edx,%eax
  1002b7:	89 c2                	mov    %eax,%edx
  1002b9:	8b 45 b4             	mov    -0x4c(%ebp),%eax
  1002bc:	21 d0                	and    %edx,%eax
  1002be:	85 c0                	test   %eax,%eax
  1002c0:	74 09                	je     1002cb <main+0x15b>
  1002c2:	66 8b 45 f2          	mov    -0xe(%ebp),%ax
  1002c6:	40                   	inc    %eax
  1002c7:	66 89 45 f2          	mov    %ax,-0xe(%ebp)
  1002cb:	66 8b 45 f6          	mov    -0xa(%ebp),%ax
  1002cf:	40                   	inc    %eax
  1002d0:	66 89 45 f6          	mov    %ax,-0xa(%ebp)
  1002d4:	66 83 7d f6 02       	cmpw   $0x2,-0xa(%ebp)
  1002d9:	76 cd                	jbe    1002a8 <main+0x138>
  1002db:	66 c7 45 f6 00 00    	movw   $0x0,-0xa(%ebp)
  1002e1:	eb 46                	jmp    100329 <main+0x1b9>
  1002e3:	0f b7 55 f6          	movzwl -0xa(%ebp),%edx
  1002e7:	89 d0                	mov    %edx,%eax
  1002e9:	c1 e0 04             	shl    $0x4,%eax
  1002ec:	01 d0                	add    %edx,%eax
  1002ee:	c1 e0 02             	shl    $0x2,%eax
  1002f1:	8d 5d f8             	lea    -0x8(%ebp),%ebx
  1002f4:	01 d8                	add    %ebx,%eax
  1002f6:	83 e8 4c             	sub    $0x4c,%eax
  1002f9:	8b 00                	mov    (%eax),%eax
  1002fb:	0f b7 5d f2          	movzwl -0xe(%ebp),%ebx
  1002ff:	0f b7 4d f6          	movzwl -0xa(%ebp),%ecx
  100303:	ba 00 00 00 00       	mov    $0x0,%edx
  100308:	f7 f3                	div    %ebx
  10030a:	89 c2                	mov    %eax,%edx
  10030c:	89 c8                	mov    %ecx,%eax
  10030e:	c1 e0 04             	shl    $0x4,%eax
  100311:	01 c8                	add    %ecx,%eax
  100313:	c1 e0 02             	shl    $0x2,%eax
  100316:	8d 5d f8             	lea    -0x8(%ebp),%ebx
  100319:	01 d8                	add    %ebx,%eax
  10031b:	83 e8 4c             	sub    $0x4c,%eax
  10031e:	89 10                	mov    %edx,(%eax)
  100320:	66 8b 45 f6          	mov    -0xa(%ebp),%ax
  100324:	40                   	inc    %eax
  100325:	66 89 45 f6          	mov    %ax,-0xa(%ebp)
  100329:	66 83 7d f6 00       	cmpw   $0x0,-0xa(%ebp)
  10032e:	74 b3                	je     1002e3 <main+0x173>
  100330:	66 c7 45 f6 00 00    	movw   $0x0,-0xa(%ebp)
  100336:	eb 78                	jmp    1003b0 <main+0x240>
  100338:	0f b7 45 f6          	movzwl -0xa(%ebp),%eax
  10033c:	ba 01 00 00 00       	mov    $0x1,%edx
  100341:	88 c1                	mov    %al,%cl
  100343:	d3 e2                	shl    %cl,%edx
  100345:	89 d0                	mov    %edx,%eax
  100347:	89 c2                	mov    %eax,%edx
  100349:	8b 45 b4             	mov    -0x4c(%ebp),%eax
  10034c:	21 d0                	and    %edx,%eax
  10034e:	85 c0                	test   %eax,%eax
  100350:	74 55                	je     1003a7 <main+0x237>
  100352:	c7 45 e8 00 00 00 00 	movl   $0x0,-0x18(%ebp)
  100359:	eb 3e                	jmp    100399 <main+0x229>
  10035b:	8b 55 e8             	mov    -0x18(%ebp),%edx
  10035e:	89 d0                	mov    %edx,%eax
  100360:	c1 e0 04             	shl    $0x4,%eax
  100363:	01 d0                	add    %edx,%eax
  100365:	c1 e0 02             	shl    $0x2,%eax
  100368:	8d 5d f8             	lea    -0x8(%ebp),%ebx
  10036b:	01 d8                	add    %ebx,%eax
  10036d:	83 e8 5c             	sub    $0x5c,%eax
  100370:	8b 10                	mov    (%eax),%edx
  100372:	8b 4d ac             	mov    -0x54(%ebp),%ecx
  100375:	0f b7 45 f4          	movzwl -0xc(%ebp),%eax
  100379:	0f af c1             	imul   %ecx,%eax
  10037c:	0f b7 4d f6          	movzwl -0xa(%ebp),%ecx
  100380:	8d 59 01             	lea    0x1(%ecx),%ebx
  100383:	8d 0c 02             	lea    (%edx,%eax,1),%ecx
  100386:	8b 55 e8             	mov    -0x18(%ebp),%edx
  100389:	89 d0                	mov    %edx,%eax
  10038b:	c1 e0 04             	shl    $0x4,%eax
  10038e:	01 d0                	add    %edx,%eax
  100390:	01 d8                	add    %ebx,%eax
  100392:	89 4c 85 9c          	mov    %ecx,-0x64(%ebp,%eax,4)
  100396:	ff 45 e8             	incl   -0x18(%ebp)
  100399:	83 7d e8 00          	cmpl   $0x0,-0x18(%ebp)
  10039d:	74 bc                	je     10035b <main+0x1eb>
  10039f:	8b 45 f4             	mov    -0xc(%ebp),%eax
  1003a2:	40                   	inc    %eax
  1003a3:	66 89 45 f4          	mov    %ax,-0xc(%ebp)
  1003a7:	66 8b 45 f6          	mov    -0xa(%ebp),%ax
  1003ab:	40                   	inc    %eax
  1003ac:	66 89 45 f6          	mov    %ax,-0xa(%ebp)
  1003b0:	66 83 7d f6 02       	cmpw   $0x2,-0xa(%ebp)
  1003b5:	76 81                	jbe    100338 <main+0x1c8>
  1003b7:	66 c7 45 f6 00 00    	movw   $0x0,-0xa(%ebp)
  1003bd:	e9 82 01 00 00       	jmp    100544 <main+0x3d4>
  1003c2:	0f b7 55 f6          	movzwl -0xa(%ebp),%edx
  1003c6:	89 d0                	mov    %edx,%eax
  1003c8:	c1 e0 04             	shl    $0x4,%eax
  1003cb:	01 d0                	add    %edx,%eax
  1003cd:	c1 e0 02             	shl    $0x2,%eax
  1003d0:	8d 5d f8             	lea    -0x8(%ebp),%ebx
  1003d3:	01 d8                	add    %ebx,%eax
  1003d5:	83 e8 44             	sub    $0x44,%eax
  1003d8:	8b 00                	mov    (%eax),%eax
  1003da:	83 e0 01             	and    $0x1,%eax
  1003dd:	85 c0                	test   %eax,%eax
  1003df:	74 5e                	je     10043f <main+0x2cf>
  1003e1:	0f b7 55 f6          	movzwl -0xa(%ebp),%edx
  1003e5:	89 d0                	mov    %edx,%eax
  1003e7:	c1 e0 04             	shl    $0x4,%eax
  1003ea:	01 d0                	add    %edx,%eax
  1003ec:	c1 e0 02             	shl    $0x2,%eax
  1003ef:	8d 5d f8             	lea    -0x8(%ebp),%ebx
  1003f2:	01 d8                	add    %ebx,%eax
  1003f4:	83 e8 64             	sub    $0x64,%eax
  1003f7:	8b 00                	mov    (%eax),%eax
  1003f9:	0f bf c8             	movswl %ax,%ecx
  1003fc:	0f b7 55 f6          	movzwl -0xa(%ebp),%edx
  100400:	89 d0                	mov    %edx,%eax
  100402:	c1 e0 04             	shl    $0x4,%eax
  100405:	01 d0                	add    %edx,%eax
  100407:	c1 e0 02             	shl    $0x2,%eax
  10040a:	8d 5d f8             	lea    -0x8(%ebp),%ebx
  10040d:	01 d8                	add    %ebx,%eax
  10040f:	83 e8 58             	sub    $0x58,%eax
  100412:	8b 10                	mov    (%eax),%edx
  100414:	8b 45 ac             	mov    -0x54(%ebp),%eax
  100417:	0f b7 5d f6          	movzwl -0xa(%ebp),%ebx
  10041b:	83 ec 04             	sub    $0x4,%esp
  10041e:	51                   	push   %ecx
  10041f:	52                   	push   %edx
  100420:	50                   	push   %eax
  100421:	e8 55 1b 00 00       	call   101f7b <core_list_init>
  100426:	83 c4 10             	add    $0x10,%esp
  100429:	89 c2                	mov    %eax,%edx
  10042b:	89 d8                	mov    %ebx,%eax
  10042d:	c1 e0 04             	shl    $0x4,%eax
  100430:	01 d8                	add    %ebx,%eax
  100432:	c1 e0 02             	shl    $0x2,%eax
  100435:	8d 5d f8             	lea    -0x8(%ebp),%ebx
  100438:	01 d8                	add    %ebx,%eax
  10043a:	83 e8 40             	sub    $0x40,%eax
  10043d:	89 10                	mov    %edx,(%eax)
  10043f:	0f b7 55 f6          	movzwl -0xa(%ebp),%edx
  100443:	89 d0                	mov    %edx,%eax
  100445:	c1 e0 04             	shl    $0x4,%eax
  100448:	01 d0                	add    %edx,%eax
  10044a:	c1 e0 02             	shl    $0x2,%eax
  10044d:	8d 5d f8             	lea    -0x8(%ebp),%ebx
  100450:	01 d8                	add    %ebx,%eax
  100452:	83 e8 44             	sub    $0x44,%eax
  100455:	8b 00                	mov    (%eax),%eax
  100457:	83 e0 02             	and    $0x2,%eax
  10045a:	85 c0                	test   %eax,%eax
  10045c:	74 7a                	je     1004d8 <main+0x368>
  10045e:	0f b7 55 f6          	movzwl -0xa(%ebp),%edx
  100462:	8d 4d 94             	lea    -0x6c(%ebp),%ecx
  100465:	89 d0                	mov    %edx,%eax
  100467:	c1 e0 04             	shl    $0x4,%eax
  10046a:	01 d0                	add    %edx,%eax
  10046c:	c1 e0 02             	shl    $0x2,%eax
  10046f:	83 c0 20             	add    $0x20,%eax
  100472:	01 c8                	add    %ecx,%eax
  100474:	8d 58 08             	lea    0x8(%eax),%ebx
  100477:	0f b7 55 f6          	movzwl -0xa(%ebp),%edx
  10047b:	89 d0                	mov    %edx,%eax
  10047d:	c1 e0 04             	shl    $0x4,%eax
  100480:	01 d0                	add    %edx,%eax
  100482:	c1 e0 02             	shl    $0x2,%eax
  100485:	8d 4d f8             	lea    -0x8(%ebp),%ecx
  100488:	01 c8                	add    %ecx,%eax
  10048a:	83 e8 64             	sub    $0x64,%eax
  10048d:	8b 00                	mov    (%eax),%eax
  10048f:	0f bf c8             	movswl %ax,%ecx
  100492:	0f b7 55 f6          	movzwl -0xa(%ebp),%edx
  100496:	89 d0                	mov    %edx,%eax
  100498:	c1 e0 04             	shl    $0x4,%eax
  10049b:	01 d0                	add    %edx,%eax
  10049d:	c1 e0 02             	shl    $0x2,%eax
  1004a0:	8d 55 f8             	lea    -0x8(%ebp),%edx
  1004a3:	01 d0                	add    %edx,%eax
  1004a5:	83 e8 62             	sub    $0x62,%eax
  1004a8:	66 8b 00             	mov    (%eax),%ax
  1004ab:	98                   	cwtl   
  1004ac:	c1 e0 10             	shl    $0x10,%eax
  1004af:	09 c1                	or     %eax,%ecx
  1004b1:	0f b7 55 f6          	movzwl -0xa(%ebp),%edx
  1004b5:	89 d0                	mov    %edx,%eax
  1004b7:	c1 e0 04             	shl    $0x4,%eax
  1004ba:	01 d0                	add    %edx,%eax
  1004bc:	c1 e0 02             	shl    $0x2,%eax
  1004bf:	8d 55 f8             	lea    -0x8(%ebp),%edx
  1004c2:	01 d0                	add    %edx,%eax
  1004c4:	83 e8 54             	sub    $0x54,%eax
  1004c7:	8b 10                	mov    (%eax),%edx
  1004c9:	8b 45 ac             	mov    -0x54(%ebp),%eax
  1004cc:	53                   	push   %ebx
  1004cd:	51                   	push   %ecx
  1004ce:	52                   	push   %edx
  1004cf:	50                   	push   %eax
  1004d0:	e8 bf 10 00 00       	call   101594 <core_init_matrix>
  1004d5:	83 c4 10             	add    $0x10,%esp
  1004d8:	0f b7 55 f6          	movzwl -0xa(%ebp),%edx
  1004dc:	89 d0                	mov    %edx,%eax
  1004de:	c1 e0 04             	shl    $0x4,%eax
  1004e1:	01 d0                	add    %edx,%eax
  1004e3:	c1 e0 02             	shl    $0x2,%eax
  1004e6:	8d 5d f8             	lea    -0x8(%ebp),%ebx
  1004e9:	01 d8                	add    %ebx,%eax
  1004eb:	83 e8 44             	sub    $0x44,%eax
  1004ee:	8b 00                	mov    (%eax),%eax
  1004f0:	83 e0 04             	and    $0x4,%eax
  1004f3:	85 c0                	test   %eax,%eax
  1004f5:	74 44                	je     10053b <main+0x3cb>
  1004f7:	0f b7 55 f6          	movzwl -0xa(%ebp),%edx
  1004fb:	89 d0                	mov    %edx,%eax
  1004fd:	c1 e0 04             	shl    $0x4,%eax
  100500:	01 d0                	add    %edx,%eax
  100502:	c1 e0 02             	shl    $0x2,%eax
  100505:	8d 5d f8             	lea    -0x8(%ebp),%ebx
  100508:	01 d8                	add    %ebx,%eax
  10050a:	83 e8 50             	sub    $0x50,%eax
  10050d:	8b 08                	mov    (%eax),%ecx
  10050f:	0f b7 55 f6          	movzwl -0xa(%ebp),%edx
  100513:	89 d0                	mov    %edx,%eax
  100515:	c1 e0 04             	shl    $0x4,%eax
  100518:	01 d0                	add    %edx,%eax
  10051a:	c1 e0 02             	shl    $0x2,%eax
  10051d:	8d 5d f8             	lea    -0x8(%ebp),%ebx
  100520:	01 d8                	add    %ebx,%eax
  100522:	83 e8 64             	sub    $0x64,%eax
  100525:	8b 00                	mov    (%eax),%eax
  100527:	0f bf d0             	movswl %ax,%edx
  10052a:	8b 45 ac             	mov    -0x54(%ebp),%eax
  10052d:	83 ec 04             	sub    $0x4,%esp
  100530:	51                   	push   %ecx
  100531:	52                   	push   %edx
  100532:	50                   	push   %eax
  100533:	e8 97 0a 00 00       	call   100fcf <core_init_state>
  100538:	83 c4 10             	add    $0x10,%esp
  10053b:	66 8b 45 f6          	mov    -0xa(%ebp),%ax
  10053f:	40                   	inc    %eax
  100540:	66 89 45 f6          	mov    %ax,-0xa(%ebp)
  100544:	66 83 7d f6 00       	cmpw   $0x0,-0xa(%ebp)
  100549:	0f 84 73 fe ff ff    	je     1003c2 <main+0x252>
  10054f:	8b 45 b0             	mov    -0x50(%ebp),%eax
  100552:	85 c0                	test   %eax,%eax
  100554:	75 7c                	jne    1005d2 <main+0x462>
  100556:	c7 45 e4 00 00 00 00 	movl   $0x0,-0x1c(%ebp)
  10055d:	c7 45 b0 01 00 00 00 	movl   $0x1,-0x50(%ebp)
  100564:	eb 3c                	jmp    1005a2 <main+0x432>
  100566:	8b 55 b0             	mov    -0x50(%ebp),%edx
  100569:	89 d0                	mov    %edx,%eax
  10056b:	c1 e0 02             	shl    $0x2,%eax
  10056e:	01 d0                	add    %edx,%eax
  100570:	01 c0                	add    %eax,%eax
  100572:	89 45 b0             	mov    %eax,-0x50(%ebp)
  100575:	e8 b2 1e 00 00       	call   10242c <start_time>
  10057a:	83 ec 0c             	sub    $0xc,%esp
  10057d:	8d 45 94             	lea    -0x6c(%ebp),%eax
  100580:	50                   	push   %eax
  100581:	e8 12 fb ff ff       	call   100098 <iterate>
  100586:	83 c4 10             	add    $0x10,%esp
  100589:	e8 b1 1e 00 00       	call   10243f <stop_time>
  10058e:	e8 bf 1e 00 00       	call   102452 <get_time>
  100593:	83 ec 0c             	sub    $0xc,%esp
  100596:	50                   	push   %eax
  100597:	e8 ca 1e 00 00       	call   102466 <time_in_secs>
  10059c:	83 c4 10             	add    $0x10,%esp
  10059f:	89 45 e4             	mov    %eax,-0x1c(%ebp)
  1005a2:	83 7d e4 00          	cmpl   $0x0,-0x1c(%ebp)
  1005a6:	74 be                	je     100566 <main+0x3f6>
  1005a8:	8b 45 e4             	mov    -0x1c(%ebp),%eax
  1005ab:	89 45 e0             	mov    %eax,-0x20(%ebp)
  1005ae:	83 7d e0 00          	cmpl   $0x0,-0x20(%ebp)
  1005b2:	75 07                	jne    1005bb <main+0x44b>
  1005b4:	c7 45 e0 01 00 00 00 	movl   $0x1,-0x20(%ebp)
  1005bb:	8b 4d b0             	mov    -0x50(%ebp),%ecx
  1005be:	b8 0a 00 00 00       	mov    $0xa,%eax
  1005c3:	ba 00 00 00 00       	mov    $0x0,%edx
  1005c8:	f7 75 e0             	divl   -0x20(%ebp)
  1005cb:	40                   	inc    %eax
  1005cc:	0f af c1             	imul   %ecx,%eax
  1005cf:	89 45 b0             	mov    %eax,-0x50(%ebp)
  1005d2:	e8 55 1e 00 00       	call   10242c <start_time>
  1005d7:	83 ec 0c             	sub    $0xc,%esp
  1005da:	8d 45 94             	lea    -0x6c(%ebp),%eax
  1005dd:	50                   	push   %eax
  1005de:	e8 b5 fa ff ff       	call   100098 <iterate>
  1005e3:	83 c4 10             	add    $0x10,%esp
  1005e6:	e8 54 1e 00 00       	call   10243f <stop_time>
  1005eb:	e8 62 1e 00 00       	call   102452 <get_time>
  1005f0:	89 45 d8             	mov    %eax,-0x28(%ebp)
  1005f3:	0f b7 55 de          	movzwl -0x22(%ebp),%edx
  1005f7:	8b 45 94             	mov    -0x6c(%ebp),%eax
  1005fa:	98                   	cwtl   
  1005fb:	83 ec 08             	sub    $0x8,%esp
  1005fe:	52                   	push   %edx
  1005ff:	50                   	push   %eax
  100600:	e8 f1 07 00 00       	call   100df6 <crc16>
  100605:	83 c4 10             	add    $0x10,%esp
  100608:	66 89 45 de          	mov    %ax,-0x22(%ebp)
  10060c:	0f b7 55 de          	movzwl -0x22(%ebp),%edx
  100610:	66 8b 45 96          	mov    -0x6a(%ebp),%ax
  100614:	98                   	cwtl   
  100615:	83 ec 08             	sub    $0x8,%esp
  100618:	52                   	push   %edx
  100619:	50                   	push   %eax
  10061a:	e8 d7 07 00 00       	call   100df6 <crc16>
  10061f:	83 c4 10             	add    $0x10,%esp
  100622:	66 89 45 de          	mov    %ax,-0x22(%ebp)
  100626:	0f b7 55 de          	movzwl -0x22(%ebp),%edx
  10062a:	8b 45 98             	mov    -0x68(%ebp),%eax
  10062d:	98                   	cwtl   
  10062e:	83 ec 08             	sub    $0x8,%esp
  100631:	52                   	push   %edx
  100632:	50                   	push   %eax
  100633:	e8 be 07 00 00       	call   100df6 <crc16>
  100638:	83 c4 10             	add    $0x10,%esp
  10063b:	66 89 45 de          	mov    %ax,-0x22(%ebp)
  10063f:	0f b7 55 de          	movzwl -0x22(%ebp),%edx
  100643:	8b 45 ac             	mov    -0x54(%ebp),%eax
  100646:	98                   	cwtl   
  100647:	83 ec 08             	sub    $0x8,%esp
  10064a:	52                   	push   %edx
  10064b:	50                   	push   %eax
  10064c:	e8 a5 07 00 00       	call   100df6 <crc16>
  100651:	83 c4 10             	add    $0x10,%esp
  100654:	66 89 45 de          	mov    %ax,-0x22(%ebp)
  100658:	0f b7 45 de          	movzwl -0x22(%ebp),%eax
  10065c:	3d f5 e9 00 00       	cmp    $0xe9f5,%eax
  100661:	0f 84 87 00 00 00    	je     1006ee <main+0x57e>
  100667:	3d f5 e9 00 00       	cmp    $0xe9f5,%eax
  10066c:	0f 8f ac 00 00 00    	jg     10071e <main+0x5ae>
  100672:	3d 02 8a 00 00       	cmp    $0x8a02,%eax
  100677:	74 2d                	je     1006a6 <main+0x536>
  100679:	3d 02 8a 00 00       	cmp    $0x8a02,%eax
  10067e:	0f 8f 9a 00 00 00    	jg     10071e <main+0x5ae>
  100684:	3d 05 7b 00 00       	cmp    $0x7b05,%eax
  100689:	74 33                	je     1006be <main+0x54e>
  10068b:	3d 05 7b 00 00       	cmp    $0x7b05,%eax
  100690:	0f 8f 88 00 00 00    	jg     10071e <main+0x5ae>
  100696:	3d f2 18 00 00       	cmp    $0x18f2,%eax
  10069b:	74 69                	je     100706 <main+0x596>
  10069d:	3d af 4e 00 00       	cmp    $0x4eaf,%eax
  1006a2:	74 32                	je     1006d6 <main+0x566>
  1006a4:	eb 78                	jmp    10071e <main+0x5ae>
  1006a6:	66 c7 45 f0 00 00    	movw   $0x0,-0x10(%ebp)
  1006ac:	83 ec 0c             	sub    $0xc,%esp
  1006af:	68 10 2a 10 00       	push   $0x102a10
  1006b4:	e8 cd 1d 00 00       	call   102486 <printf>
  1006b9:	83 c4 10             	add    $0x10,%esp
  1006bc:	eb 67                	jmp    100725 <main+0x5b5>
  1006be:	66 c7 45 f0 01 00    	movw   $0x1,-0x10(%ebp)
  1006c4:	83 ec 0c             	sub    $0xc,%esp
  1006c7:	68 40 2a 10 00       	push   $0x102a40
  1006cc:	e8 b5 1d 00 00       	call   102486 <printf>
  1006d1:	83 c4 10             	add    $0x10,%esp
  1006d4:	eb 4f                	jmp    100725 <main+0x5b5>
  1006d6:	66 c7 45 f0 02 00    	movw   $0x2,-0x10(%ebp)
  1006dc:	83 ec 0c             	sub    $0xc,%esp
  1006df:	68 6c 2a 10 00       	push   $0x102a6c
  1006e4:	e8 9d 1d 00 00       	call   102486 <printf>
  1006e9:	83 c4 10             	add    $0x10,%esp
  1006ec:	eb 37                	jmp    100725 <main+0x5b5>
  1006ee:	66 c7 45 f0 03 00    	movw   $0x3,-0x10(%ebp)
  1006f4:	83 ec 0c             	sub    $0xc,%esp
  1006f7:	68 a0 2a 10 00       	push   $0x102aa0
  1006fc:	e8 85 1d 00 00       	call   102486 <printf>
  100701:	83 c4 10             	add    $0x10,%esp
  100704:	eb 1f                	jmp    100725 <main+0x5b5>
  100706:	66 c7 45 f0 04 00    	movw   $0x4,-0x10(%ebp)
  10070c:	83 ec 0c             	sub    $0xc,%esp
  10070f:	68 d0 2a 10 00       	push   $0x102ad0
  100714:	e8 6d 1d 00 00       	call   102486 <printf>
  100719:	83 c4 10             	add    $0x10,%esp
  10071c:	eb 07                	jmp    100725 <main+0x5b5>
  10071e:	66 c7 45 ee ff ff    	movw   $0xffff,-0x12(%ebp)
  100724:	90                   	nop
  100725:	66 83 7d f0 00       	cmpw   $0x0,-0x10(%ebp)
  10072a:	0f 88 96 02 00 00    	js     1009c6 <main+0x856>
  100730:	66 c7 45 f6 00 00    	movw   $0x0,-0xa(%ebp)
  100736:	e9 7a 02 00 00       	jmp    1009b5 <main+0x845>
  10073b:	0f b7 55 f6          	movzwl -0xa(%ebp),%edx
  10073f:	89 d0                	mov    %edx,%eax
  100741:	c1 e0 04             	shl    $0x4,%eax
  100744:	01 d0                	add    %edx,%eax
  100746:	c1 e0 02             	shl    $0x2,%eax
  100749:	8d 5d f8             	lea    -0x8(%ebp),%ebx
  10074c:	01 d8                	add    %ebx,%eax
  10074e:	83 e8 24             	sub    $0x24,%eax
  100751:	66 c7 00 00 00       	movw   $0x0,(%eax)
  100756:	0f b7 55 f6          	movzwl -0xa(%ebp),%edx
  10075a:	89 d0                	mov    %edx,%eax
  10075c:	c1 e0 04             	shl    $0x4,%eax
  10075f:	01 d0                	add    %edx,%eax
  100761:	c1 e0 02             	shl    $0x2,%eax
  100764:	8d 5d f8             	lea    -0x8(%ebp),%ebx
  100767:	01 d8                	add    %ebx,%eax
  100769:	83 e8 44             	sub    $0x44,%eax
  10076c:	8b 00                	mov    (%eax),%eax
  10076e:	83 e0 01             	and    $0x1,%eax
  100771:	85 c0                	test   %eax,%eax
  100773:	0f 84 99 00 00 00    	je     100812 <main+0x6a2>
  100779:	0f b7 55 f6          	movzwl -0xa(%ebp),%edx
  10077d:	89 d0                	mov    %edx,%eax
  10077f:	c1 e0 04             	shl    $0x4,%eax
  100782:	01 d0                	add    %edx,%eax
  100784:	c1 e0 02             	shl    $0x2,%eax
  100787:	8d 5d f8             	lea    -0x8(%ebp),%ebx
  10078a:	01 d8                	add    %ebx,%eax
  10078c:	83 e8 2a             	sub    $0x2a,%eax
  10078f:	66 8b 10             	mov    (%eax),%dx
  100792:	0f bf 45 f0          	movswl -0x10(%ebp),%eax
  100796:	66 8b 84 00 20 2f 10 	mov    0x102f20(%eax,%eax,1),%ax
  10079d:	00 
  10079e:	66 39 c2             	cmp    %ax,%dx
  1007a1:	74 6f                	je     100812 <main+0x6a2>
  1007a3:	0f bf 45 f0          	movswl -0x10(%ebp),%eax
  1007a7:	66 8b 84 00 20 2f 10 	mov    0x102f20(%eax,%eax,1),%ax
  1007ae:	00 
  1007af:	0f b7 c8             	movzwl %ax,%ecx
  1007b2:	0f b7 55 f6          	movzwl -0xa(%ebp),%edx
  1007b6:	89 d0                	mov    %edx,%eax
  1007b8:	c1 e0 04             	shl    $0x4,%eax
  1007bb:	01 d0                	add    %edx,%eax
  1007bd:	c1 e0 02             	shl    $0x2,%eax
  1007c0:	8d 5d f8             	lea    -0x8(%ebp),%ebx
  1007c3:	01 d8                	add    %ebx,%eax
  1007c5:	83 e8 2a             	sub    $0x2a,%eax
  1007c8:	66 8b 00             	mov    (%eax),%ax
  1007cb:	0f b7 d0             	movzwl %ax,%edx
  1007ce:	0f b7 45 f6          	movzwl -0xa(%ebp),%eax
  1007d2:	51                   	push   %ecx
  1007d3:	52                   	push   %edx
  1007d4:	50                   	push   %eax
  1007d5:	68 fc 2a 10 00       	push   $0x102afc
  1007da:	e8 a7 1c 00 00       	call   102486 <printf>
  1007df:	83 c4 10             	add    $0x10,%esp
  1007e2:	0f b7 55 f6          	movzwl -0xa(%ebp),%edx
  1007e6:	89 d0                	mov    %edx,%eax
  1007e8:	c1 e0 04             	shl    $0x4,%eax
  1007eb:	01 d0                	add    %edx,%eax
  1007ed:	c1 e0 02             	shl    $0x2,%eax
  1007f0:	8d 4d f8             	lea    -0x8(%ebp),%ecx
  1007f3:	01 c8                	add    %ecx,%eax
  1007f5:	83 e8 24             	sub    $0x24,%eax
  1007f8:	8b 00                	mov    (%eax),%eax
  1007fa:	40                   	inc    %eax
  1007fb:	89 c1                	mov    %eax,%ecx
  1007fd:	89 d0                	mov    %edx,%eax
  1007ff:	c1 e0 04             	shl    $0x4,%eax
  100802:	01 d0                	add    %edx,%eax
  100804:	c1 e0 02             	shl    $0x2,%eax
  100807:	8d 5d f8             	lea    -0x8(%ebp),%ebx
  10080a:	01 d8                	add    %ebx,%eax
  10080c:	83 e8 24             	sub    $0x24,%eax
  10080f:	66 89 08             	mov    %cx,(%eax)
  100812:	0f b7 55 f6          	movzwl -0xa(%ebp),%edx
  100816:	89 d0                	mov    %edx,%eax
  100818:	c1 e0 04             	shl    $0x4,%eax
  10081b:	01 d0                	add    %edx,%eax
  10081d:	c1 e0 02             	shl    $0x2,%eax
  100820:	8d 4d f8             	lea    -0x8(%ebp),%ecx
  100823:	01 c8                	add    %ecx,%eax
  100825:	83 e8 44             	sub    $0x44,%eax
  100828:	8b 00                	mov    (%eax),%eax
  10082a:	83 e0 02             	and    $0x2,%eax
  10082d:	85 c0                	test   %eax,%eax
  10082f:	0f 84 97 00 00 00    	je     1008cc <main+0x75c>
  100835:	0f b7 55 f6          	movzwl -0xa(%ebp),%edx
  100839:	89 d0                	mov    %edx,%eax
  10083b:	c1 e0 04             	shl    $0x4,%eax
  10083e:	01 d0                	add    %edx,%eax
  100840:	c1 e0 02             	shl    $0x2,%eax
  100843:	8d 5d f8             	lea    -0x8(%ebp),%ebx
  100846:	01 d8                	add    %ebx,%eax
  100848:	83 e8 28             	sub    $0x28,%eax
  10084b:	8b 10                	mov    (%eax),%edx
  10084d:	0f bf 45 f0          	movswl -0x10(%ebp),%eax
  100851:	66 8b 84 00 2c 2f 10 	mov    0x102f2c(%eax,%eax,1),%ax
  100858:	00 
  100859:	66 39 c2             	cmp    %ax,%dx
  10085c:	74 6e                	je     1008cc <main+0x75c>
  10085e:	0f bf 45 f0          	movswl -0x10(%ebp),%eax
  100862:	66 8b 84 00 2c 2f 10 	mov    0x102f2c(%eax,%eax,1),%ax
  100869:	00 
  10086a:	0f b7 c8             	movzwl %ax,%ecx
  10086d:	0f b7 55 f6          	movzwl -0xa(%ebp),%edx
  100871:	89 d0                	mov    %edx,%eax
  100873:	c1 e0 04             	shl    $0x4,%eax
  100876:	01 d0                	add    %edx,%eax
  100878:	c1 e0 02             	shl    $0x2,%eax
  10087b:	8d 5d f8             	lea    -0x8(%ebp),%ebx
  10087e:	01 d8                	add    %ebx,%eax
  100880:	83 e8 28             	sub    $0x28,%eax
  100883:	8b 00                	mov    (%eax),%eax
  100885:	0f b7 d0             	movzwl %ax,%edx
  100888:	0f b7 45 f6          	movzwl -0xa(%ebp),%eax
  10088c:	51                   	push   %ecx
  10088d:	52                   	push   %edx
  10088e:	50                   	push   %eax
  10088f:	68 2c 2b 10 00       	push   $0x102b2c
  100894:	e8 ed 1b 00 00       	call   102486 <printf>
  100899:	83 c4 10             	add    $0x10,%esp
  10089c:	0f b7 55 f6          	movzwl -0xa(%ebp),%edx
  1008a0:	89 d0                	mov    %edx,%eax
  1008a2:	c1 e0 04             	shl    $0x4,%eax
  1008a5:	01 d0                	add    %edx,%eax
  1008a7:	c1 e0 02             	shl    $0x2,%eax
  1008aa:	8d 4d f8             	lea    -0x8(%ebp),%ecx
  1008ad:	01 c8                	add    %ecx,%eax
  1008af:	83 e8 24             	sub    $0x24,%eax
  1008b2:	8b 00                	mov    (%eax),%eax
  1008b4:	40                   	inc    %eax
  1008b5:	89 c1                	mov    %eax,%ecx
  1008b7:	89 d0                	mov    %edx,%eax
  1008b9:	c1 e0 04             	shl    $0x4,%eax
  1008bc:	01 d0                	add    %edx,%eax
  1008be:	c1 e0 02             	shl    $0x2,%eax
  1008c1:	8d 5d f8             	lea    -0x8(%ebp),%ebx
  1008c4:	01 d8                	add    %ebx,%eax
  1008c6:	83 e8 24             	sub    $0x24,%eax
  1008c9:	66 89 08             	mov    %cx,(%eax)
  1008cc:	0f b7 55 f6          	movzwl -0xa(%ebp),%edx
  1008d0:	89 d0                	mov    %edx,%eax
  1008d2:	c1 e0 04             	shl    $0x4,%eax
  1008d5:	01 d0                	add    %edx,%eax
  1008d7:	c1 e0 02             	shl    $0x2,%eax
  1008da:	8d 4d f8             	lea    -0x8(%ebp),%ecx
  1008dd:	01 c8                	add    %ecx,%eax
  1008df:	83 e8 44             	sub    $0x44,%eax
  1008e2:	8b 00                	mov    (%eax),%eax
  1008e4:	83 e0 04             	and    $0x4,%eax
  1008e7:	85 c0                	test   %eax,%eax
  1008e9:	0f 84 99 00 00 00    	je     100988 <main+0x818>
  1008ef:	0f b7 55 f6          	movzwl -0xa(%ebp),%edx
  1008f3:	89 d0                	mov    %edx,%eax
  1008f5:	c1 e0 04             	shl    $0x4,%eax
  1008f8:	01 d0                	add    %edx,%eax
  1008fa:	c1 e0 02             	shl    $0x2,%eax
  1008fd:	8d 4d f8             	lea    -0x8(%ebp),%ecx
  100900:	01 c8                	add    %ecx,%eax
  100902:	83 e8 26             	sub    $0x26,%eax
  100905:	66 8b 10             	mov    (%eax),%dx
  100908:	0f bf 45 f0          	movswl -0x10(%ebp),%eax
  10090c:	66 8b 84 00 38 2f 10 	mov    0x102f38(%eax,%eax,1),%ax
  100913:	00 
  100914:	66 39 c2             	cmp    %ax,%dx
  100917:	74 6f                	je     100988 <main+0x818>
  100919:	0f bf 45 f0          	movswl -0x10(%ebp),%eax
  10091d:	66 8b 84 00 38 2f 10 	mov    0x102f38(%eax,%eax,1),%ax
  100924:	00 
  100925:	0f b7 c8             	movzwl %ax,%ecx
  100928:	0f b7 55 f6          	movzwl -0xa(%ebp),%edx
  10092c:	89 d0                	mov    %edx,%eax
  10092e:	c1 e0 04             	shl    $0x4,%eax
  100931:	01 d0                	add    %edx,%eax
  100933:	c1 e0 02             	shl    $0x2,%eax
  100936:	8d 5d f8             	lea    -0x8(%ebp),%ebx
  100939:	01 d8                	add    %ebx,%eax
  10093b:	83 e8 26             	sub    $0x26,%eax
  10093e:	66 8b 00             	mov    (%eax),%ax
  100941:	0f b7 d0             	movzwl %ax,%edx
  100944:	0f b7 45 f6          	movzwl -0xa(%ebp),%eax
  100948:	51                   	push   %ecx
  100949:	52                   	push   %edx
  10094a:	50                   	push   %eax
  10094b:	68 60 2b 10 00       	push   $0x102b60
  100950:	e8 31 1b 00 00       	call   102486 <printf>
  100955:	83 c4 10             	add    $0x10,%esp
  100958:	0f b7 55 f6          	movzwl -0xa(%ebp),%edx
  10095c:	89 d0                	mov    %edx,%eax
  10095e:	c1 e0 04             	shl    $0x4,%eax
  100961:	01 d0                	add    %edx,%eax
  100963:	c1 e0 02             	shl    $0x2,%eax
  100966:	8d 4d f8             	lea    -0x8(%ebp),%ecx
  100969:	01 c8                	add    %ecx,%eax
  10096b:	83 e8 24             	sub    $0x24,%eax
  10096e:	8b 00                	mov    (%eax),%eax
  100970:	40                   	inc    %eax
  100971:	89 c1                	mov    %eax,%ecx
  100973:	89 d0                	mov    %edx,%eax
  100975:	c1 e0 04             	shl    $0x4,%eax
  100978:	01 d0                	add    %edx,%eax
  10097a:	c1 e0 02             	shl    $0x2,%eax
  10097d:	8d 5d f8             	lea    -0x8(%ebp),%ebx
  100980:	01 d8                	add    %ebx,%eax
  100982:	83 e8 24             	sub    $0x24,%eax
  100985:	66 89 08             	mov    %cx,(%eax)
  100988:	0f b7 55 f6          	movzwl -0xa(%ebp),%edx
  10098c:	89 d0                	mov    %edx,%eax
  10098e:	c1 e0 04             	shl    $0x4,%eax
  100991:	01 d0                	add    %edx,%eax
  100993:	c1 e0 02             	shl    $0x2,%eax
  100996:	8d 4d f8             	lea    -0x8(%ebp),%ecx
  100999:	01 c8                	add    %ecx,%eax
  10099b:	83 e8 24             	sub    $0x24,%eax
  10099e:	8b 00                	mov    (%eax),%eax
  1009a0:	89 c2                	mov    %eax,%edx
  1009a2:	66 8b 45 ee          	mov    -0x12(%ebp),%ax
  1009a6:	01 d0                	add    %edx,%eax
  1009a8:	66 89 45 ee          	mov    %ax,-0x12(%ebp)
  1009ac:	66 8b 45 f6          	mov    -0xa(%ebp),%ax
  1009b0:	40                   	inc    %eax
  1009b1:	66 89 45 f6          	mov    %ax,-0xa(%ebp)
  1009b5:	0f b7 55 f6          	movzwl -0xa(%ebp),%edx
  1009b9:	a1 98 2f 10 00       	mov    0x102f98,%eax
  1009be:	39 c2                	cmp    %eax,%edx
  1009c0:	0f 82 75 fd ff ff    	jb     10073b <main+0x5cb>
  1009c6:	e8 55 04 00 00       	call   100e20 <check_data_types>
  1009cb:	0f b6 d0             	movzbl %al,%edx
  1009ce:	66 8b 45 ee          	mov    -0x12(%ebp),%ax
  1009d2:	01 d0                	add    %edx,%eax
  1009d4:	66 89 45 ee          	mov    %ax,-0x12(%ebp)
  1009d8:	8b 45 ac             	mov    -0x54(%ebp),%eax
  1009db:	83 ec 08             	sub    $0x8,%esp
  1009de:	50                   	push   %eax
  1009df:	68 90 2b 10 00       	push   $0x102b90
  1009e4:	e8 9d 1a 00 00       	call   102486 <printf>
  1009e9:	83 c4 10             	add    $0x10,%esp
  1009ec:	83 ec 0c             	sub    $0xc,%esp
  1009ef:	ff 75 d8             	pushl  -0x28(%ebp)
  1009f2:	e8 6f 1a 00 00       	call   102466 <time_in_secs>
  1009f7:	83 c4 10             	add    $0x10,%esp
  1009fa:	83 ec 08             	sub    $0x8,%esp
  1009fd:	50                   	push   %eax
  1009fe:	68 a7 2b 10 00       	push   $0x102ba7
  100a03:	e8 7e 1a 00 00       	call   102486 <printf>
  100a08:	83 c4 10             	add    $0x10,%esp
  100a0b:	8b 55 b0             	mov    -0x50(%ebp),%edx
  100a0e:	a1 98 2f 10 00       	mov    0x102f98,%eax
  100a13:	0f af c2             	imul   %edx,%eax
  100a16:	83 ec 08             	sub    $0x8,%esp
  100a19:	50                   	push   %eax
  100a1a:	68 be 2b 10 00       	push   $0x102bbe
  100a1f:	e8 62 1a 00 00       	call   102486 <printf>
  100a24:	83 c4 10             	add    $0x10,%esp
  100a27:	83 ec 08             	sub    $0x8,%esp
  100a2a:	68 d5 2b 10 00       	push   $0x102bd5
  100a2f:	68 e7 2b 10 00       	push   $0x102be7
  100a34:	e8 4d 1a 00 00       	call   102486 <printf>
  100a39:	83 c4 10             	add    $0x10,%esp
  100a3c:	0f b7 45 de          	movzwl -0x22(%ebp),%eax
  100a40:	83 ec 08             	sub    $0x8,%esp
  100a43:	50                   	push   %eax
  100a44:	68 fe 2b 10 00       	push   $0x102bfe
  100a49:	e8 38 1a 00 00       	call   102486 <printf>
  100a4e:	83 c4 10             	add    $0x10,%esp
  100a51:	8b 45 b4             	mov    -0x4c(%ebp),%eax
  100a54:	83 e0 01             	and    $0x1,%eax
  100a57:	85 c0                	test   %eax,%eax
  100a59:	74 50                	je     100aab <main+0x93b>
  100a5b:	66 c7 45 f6 00 00    	movw   $0x0,-0xa(%ebp)
  100a61:	eb 3b                	jmp    100a9e <main+0x92e>
  100a63:	0f b7 55 f6          	movzwl -0xa(%ebp),%edx
  100a67:	89 d0                	mov    %edx,%eax
  100a69:	c1 e0 04             	shl    $0x4,%eax
  100a6c:	01 d0                	add    %edx,%eax
  100a6e:	c1 e0 02             	shl    $0x2,%eax
  100a71:	8d 5d f8             	lea    -0x8(%ebp),%ebx
  100a74:	01 d8                	add    %ebx,%eax
  100a76:	83 e8 2a             	sub    $0x2a,%eax
  100a79:	66 8b 00             	mov    (%eax),%ax
  100a7c:	0f b7 d0             	movzwl %ax,%edx
  100a7f:	0f b7 45 f6          	movzwl -0xa(%ebp),%eax
  100a83:	83 ec 04             	sub    $0x4,%esp
  100a86:	52                   	push   %edx
  100a87:	50                   	push   %eax
  100a88:	68 19 2c 10 00       	push   $0x102c19
  100a8d:	e8 f4 19 00 00       	call   102486 <printf>
  100a92:	83 c4 10             	add    $0x10,%esp
  100a95:	66 8b 45 f6          	mov    -0xa(%ebp),%ax
  100a99:	40                   	inc    %eax
  100a9a:	66 89 45 f6          	mov    %ax,-0xa(%ebp)
  100a9e:	0f b7 55 f6          	movzwl -0xa(%ebp),%edx
  100aa2:	a1 98 2f 10 00       	mov    0x102f98,%eax
  100aa7:	39 c2                	cmp    %eax,%edx
  100aa9:	72 b8                	jb     100a63 <main+0x8f3>
  100aab:	8b 45 b4             	mov    -0x4c(%ebp),%eax
  100aae:	83 e0 02             	and    $0x2,%eax
  100ab1:	85 c0                	test   %eax,%eax
  100ab3:	74 4f                	je     100b04 <main+0x994>
  100ab5:	66 c7 45 f6 00 00    	movw   $0x0,-0xa(%ebp)
  100abb:	eb 3a                	jmp    100af7 <main+0x987>
  100abd:	0f b7 55 f6          	movzwl -0xa(%ebp),%edx
  100ac1:	89 d0                	mov    %edx,%eax
  100ac3:	c1 e0 04             	shl    $0x4,%eax
  100ac6:	01 d0                	add    %edx,%eax
  100ac8:	c1 e0 02             	shl    $0x2,%eax
  100acb:	8d 4d f8             	lea    -0x8(%ebp),%ecx
  100ace:	01 c8                	add    %ecx,%eax
  100ad0:	83 e8 28             	sub    $0x28,%eax
  100ad3:	8b 00                	mov    (%eax),%eax
  100ad5:	0f b7 d0             	movzwl %ax,%edx
  100ad8:	0f b7 45 f6          	movzwl -0xa(%ebp),%eax
  100adc:	83 ec 04             	sub    $0x4,%esp
  100adf:	52                   	push   %edx
  100ae0:	50                   	push   %eax
  100ae1:	68 35 2c 10 00       	push   $0x102c35
  100ae6:	e8 9b 19 00 00       	call   102486 <printf>
  100aeb:	83 c4 10             	add    $0x10,%esp
  100aee:	66 8b 45 f6          	mov    -0xa(%ebp),%ax
  100af2:	40                   	inc    %eax
  100af3:	66 89 45 f6          	mov    %ax,-0xa(%ebp)
  100af7:	0f b7 55 f6          	movzwl -0xa(%ebp),%edx
  100afb:	a1 98 2f 10 00       	mov    0x102f98,%eax
  100b00:	39 c2                	cmp    %eax,%edx
  100b02:	72 b9                	jb     100abd <main+0x94d>
  100b04:	8b 45 b4             	mov    -0x4c(%ebp),%eax
  100b07:	83 e0 04             	and    $0x4,%eax
  100b0a:	85 c0                	test   %eax,%eax
  100b0c:	74 50                	je     100b5e <main+0x9ee>
  100b0e:	66 c7 45 f6 00 00    	movw   $0x0,-0xa(%ebp)
  100b14:	eb 3b                	jmp    100b51 <main+0x9e1>
  100b16:	0f b7 55 f6          	movzwl -0xa(%ebp),%edx
  100b1a:	89 d0                	mov    %edx,%eax
  100b1c:	c1 e0 04             	shl    $0x4,%eax
  100b1f:	01 d0                	add    %edx,%eax
  100b21:	c1 e0 02             	shl    $0x2,%eax
  100b24:	8d 5d f8             	lea    -0x8(%ebp),%ebx
  100b27:	01 d8                	add    %ebx,%eax
  100b29:	83 e8 26             	sub    $0x26,%eax
  100b2c:	66 8b 00             	mov    (%eax),%ax
  100b2f:	0f b7 d0             	movzwl %ax,%edx
  100b32:	0f b7 45 f6          	movzwl -0xa(%ebp),%eax
  100b36:	83 ec 04             	sub    $0x4,%esp
  100b39:	52                   	push   %edx
  100b3a:	50                   	push   %eax
  100b3b:	68 51 2c 10 00       	push   $0x102c51
  100b40:	e8 41 19 00 00       	call   102486 <printf>
  100b45:	83 c4 10             	add    $0x10,%esp
  100b48:	66 8b 45 f6          	mov    -0xa(%ebp),%ax
  100b4c:	40                   	inc    %eax
  100b4d:	66 89 45 f6          	mov    %ax,-0xa(%ebp)
  100b51:	0f b7 55 f6          	movzwl -0xa(%ebp),%edx
  100b55:	a1 98 2f 10 00       	mov    0x102f98,%eax
  100b5a:	39 c2                	cmp    %eax,%edx
  100b5c:	72 b8                	jb     100b16 <main+0x9a6>
  100b5e:	66 c7 45 f6 00 00    	movw   $0x0,-0xa(%ebp)
  100b64:	eb 3a                	jmp    100ba0 <main+0xa30>
  100b66:	0f b7 55 f6          	movzwl -0xa(%ebp),%edx
  100b6a:	89 d0                	mov    %edx,%eax
  100b6c:	c1 e0 04             	shl    $0x4,%eax
  100b6f:	01 d0                	add    %edx,%eax
  100b71:	c1 e0 02             	shl    $0x2,%eax
  100b74:	8d 4d f8             	lea    -0x8(%ebp),%ecx
  100b77:	01 c8                	add    %ecx,%eax
  100b79:	83 e8 2c             	sub    $0x2c,%eax
  100b7c:	8b 00                	mov    (%eax),%eax
  100b7e:	0f b7 d0             	movzwl %ax,%edx
  100b81:	0f b7 45 f6          	movzwl -0xa(%ebp),%eax
  100b85:	83 ec 04             	sub    $0x4,%esp
  100b88:	52                   	push   %edx
  100b89:	50                   	push   %eax
  100b8a:	68 6d 2c 10 00       	push   $0x102c6d
  100b8f:	e8 f2 18 00 00       	call   102486 <printf>
  100b94:	83 c4 10             	add    $0x10,%esp
  100b97:	66 8b 45 f6          	mov    -0xa(%ebp),%ax
  100b9b:	40                   	inc    %eax
  100b9c:	66 89 45 f6          	mov    %ax,-0xa(%ebp)
  100ba0:	0f b7 55 f6          	movzwl -0xa(%ebp),%edx
  100ba4:	a1 98 2f 10 00       	mov    0x102f98,%eax
  100ba9:	39 c2                	cmp    %eax,%edx
  100bab:	72 b9                	jb     100b66 <main+0x9f6>
  100bad:	8b 45 d8             	mov    -0x28(%ebp),%eax
  100bb0:	83 ec 08             	sub    $0x8,%esp
  100bb3:	50                   	push   %eax
  100bb4:	68 89 2c 10 00       	push   $0x102c89
  100bb9:	e8 c8 18 00 00       	call   102486 <printf>
  100bbe:	83 c4 10             	add    $0x10,%esp
  100bc1:	66 83 7d ee 00       	cmpw   $0x0,-0x12(%ebp)
  100bc6:	75 79                	jne    100c41 <main+0xad1>
  100bc8:	83 ec 0c             	sub    $0xc,%esp
  100bcb:	68 9c 2c 10 00       	push   $0x102c9c
  100bd0:	e8 b1 18 00 00       	call   102486 <printf>
  100bd5:	83 c4 10             	add    $0x10,%esp
  100bd8:	83 ec 0c             	sub    $0xc,%esp
  100bdb:	ff 75 d8             	pushl  -0x28(%ebp)
  100bde:	e8 83 18 00 00       	call   102466 <time_in_secs>
  100be3:	83 c4 10             	add    $0x10,%esp
  100be6:	89 c1                	mov    %eax,%ecx
  100be8:	b8 80 2f 44 00       	mov    $0x442f80,%eax
  100bed:	ba 00 00 00 00       	mov    $0x0,%edx
  100bf2:	f7 f1                	div    %ecx
  100bf4:	89 c2                	mov    %eax,%edx
  100bf6:	89 d0                	mov    %edx,%eax
  100bf8:	c1 e0 02             	shl    $0x2,%eax
  100bfb:	01 d0                	add    %edx,%eax
  100bfd:	8d 14 85 00 00 00 00 	lea    0x0(,%eax,4),%edx
  100c04:	01 d0                	add    %edx,%eax
  100c06:	8d 14 85 00 00 00 00 	lea    0x0(,%eax,4),%edx
  100c0d:	01 d0                	add    %edx,%eax
  100c0f:	c1 e0 03             	shl    $0x3,%eax
  100c12:	89 c2                	mov    %eax,%edx
  100c14:	b8 d3 4d 62 10       	mov    $0x10624dd3,%eax
  100c19:	f7 e2                	mul    %edx
  100c1b:	89 d0                	mov    %edx,%eax
  100c1d:	c1 e8 06             	shr    $0x6,%eax
  100c20:	83 ec 08             	sub    $0x8,%esp
  100c23:	50                   	push   %eax
  100c24:	68 d0 2c 10 00       	push   $0x102cd0
  100c29:	e8 58 18 00 00       	call   102486 <printf>
  100c2e:	83 c4 10             	add    $0x10,%esp
  100c31:	83 ec 0c             	sub    $0xc,%esp
  100c34:	68 f0 2c 10 00       	push   $0x102cf0
  100c39:	e8 48 18 00 00       	call   102486 <printf>
  100c3e:	83 c4 10             	add    $0x10,%esp
  100c41:	66 83 7d ee 00       	cmpw   $0x0,-0x12(%ebp)
  100c46:	7e 10                	jle    100c58 <main+0xae8>
  100c48:	83 ec 0c             	sub    $0xc,%esp
  100c4b:	68 26 2d 10 00       	push   $0x102d26
  100c50:	e8 31 18 00 00       	call   102486 <printf>
  100c55:	83 c4 10             	add    $0x10,%esp
  100c58:	66 83 7d ee 00       	cmpw   $0x0,-0x12(%ebp)
  100c5d:	79 10                	jns    100c6f <main+0xaff>
  100c5f:	83 ec 0c             	sub    $0xc,%esp
  100c62:	68 38 2d 10 00       	push   $0x102d38
  100c67:	e8 1a 18 00 00       	call   102486 <printf>
  100c6c:	83 c4 10             	add    $0x10,%esp
  100c6f:	83 ec 0c             	sub    $0xc,%esp
  100c72:	8d 45 94             	lea    -0x6c(%ebp),%eax
  100c75:	83 c0 42             	add    $0x42,%eax
  100c78:	50                   	push   %eax
  100c79:	e8 fc 17 00 00       	call   10247a <portable_fini>
  100c7e:	83 c4 10             	add    $0x10,%esp
  100c81:	b8 00 00 00 00       	mov    $0x0,%eax
  100c86:	8d 65 f8             	lea    -0x8(%ebp),%esp
  100c89:	59                   	pop    %ecx
  100c8a:	5b                   	pop    %ebx
  100c8b:	5d                   	pop    %ebp
  100c8c:	8d 61 fc             	lea    -0x4(%ecx),%esp
  100c8f:	c3                   	ret    

00100c90 <get_seed_32>:
  100c90:	55                   	push   %ebp
  100c91:	89 e5                	mov    %esp,%ebp
  100c93:	83 ec 10             	sub    $0x10,%esp
  100c96:	83 7d 08 05          	cmpl   $0x5,0x8(%ebp)
  100c9a:	77 41                	ja     100cdd <get_seed_32+0x4d>
  100c9c:	8b 45 08             	mov    0x8(%ebp),%eax
  100c9f:	c1 e0 02             	shl    $0x2,%eax
  100ca2:	05 9c 2d 10 00       	add    $0x102d9c,%eax
  100ca7:	8b 00                	mov    (%eax),%eax
  100ca9:	ff e0                	jmp    *%eax
  100cab:	a1 e0 2f 10 00       	mov    0x102fe0,%eax
  100cb0:	89 45 fc             	mov    %eax,-0x4(%ebp)
  100cb3:	eb 30                	jmp    100ce5 <get_seed_32+0x55>
  100cb5:	a1 e4 2f 10 00       	mov    0x102fe4,%eax
  100cba:	89 45 fc             	mov    %eax,-0x4(%ebp)
  100cbd:	eb 26                	jmp    100ce5 <get_seed_32+0x55>
  100cbf:	a1 90 2f 10 00       	mov    0x102f90,%eax
  100cc4:	89 45 fc             	mov    %eax,-0x4(%ebp)
  100cc7:	eb 1c                	jmp    100ce5 <get_seed_32+0x55>
  100cc9:	a1 94 2f 10 00       	mov    0x102f94,%eax
  100cce:	89 45 fc             	mov    %eax,-0x4(%ebp)
  100cd1:	eb 12                	jmp    100ce5 <get_seed_32+0x55>
  100cd3:	a1 e8 2f 10 00       	mov    0x102fe8,%eax
  100cd8:	89 45 fc             	mov    %eax,-0x4(%ebp)
  100cdb:	eb 08                	jmp    100ce5 <get_seed_32+0x55>
  100cdd:	c7 45 fc 00 00 00 00 	movl   $0x0,-0x4(%ebp)
  100ce4:	90                   	nop
  100ce5:	8b 45 fc             	mov    -0x4(%ebp),%eax
  100ce8:	c9                   	leave  
  100ce9:	c3                   	ret    

00100cea <crcu8>:
  100cea:	55                   	push   %ebp
  100ceb:	89 e5                	mov    %esp,%ebp
  100ced:	83 ec 18             	sub    $0x18,%esp
  100cf0:	8b 55 08             	mov    0x8(%ebp),%edx
  100cf3:	8b 45 0c             	mov    0xc(%ebp),%eax
  100cf6:	88 55 ec             	mov    %dl,-0x14(%ebp)
  100cf9:	66 89 45 e8          	mov    %ax,-0x18(%ebp)
  100cfd:	c6 45 ff 00          	movb   $0x0,-0x1(%ebp)
  100d01:	c6 45 fd 00          	movb   $0x0,-0x3(%ebp)
  100d05:	c6 45 fe 00          	movb   $0x0,-0x2(%ebp)
  100d09:	c6 45 ff 00          	movb   $0x0,-0x1(%ebp)
  100d0d:	eb 48                	jmp    100d57 <crcu8+0x6d>
  100d0f:	8b 45 e8             	mov    -0x18(%ebp),%eax
  100d12:	88 c2                	mov    %al,%dl
  100d14:	8a 45 ec             	mov    -0x14(%ebp),%al
  100d17:	31 d0                	xor    %edx,%eax
  100d19:	83 e0 01             	and    $0x1,%eax
  100d1c:	88 45 fd             	mov    %al,-0x3(%ebp)
  100d1f:	d0 6d ec             	shrb   -0x14(%ebp)
  100d22:	80 7d fd 01          	cmpb   $0x1,-0x3(%ebp)
  100d26:	75 0c                	jne    100d34 <crcu8+0x4a>
  100d28:	66 81 75 e8 02 40    	xorw   $0x4002,-0x18(%ebp)
  100d2e:	c6 45 fe 01          	movb   $0x1,-0x2(%ebp)
  100d32:	eb 04                	jmp    100d38 <crcu8+0x4e>
  100d34:	c6 45 fe 00          	movb   $0x0,-0x2(%ebp)
  100d38:	66 d1 6d e8          	shrw   -0x18(%ebp)
  100d3c:	80 7d fe 00          	cmpb   $0x0,-0x2(%ebp)
  100d40:	74 08                	je     100d4a <crcu8+0x60>
  100d42:	66 81 4d e8 00 80    	orw    $0x8000,-0x18(%ebp)
  100d48:	eb 06                	jmp    100d50 <crcu8+0x66>
  100d4a:	66 81 65 e8 ff 7f    	andw   $0x7fff,-0x18(%ebp)
  100d50:	8a 45 ff             	mov    -0x1(%ebp),%al
  100d53:	40                   	inc    %eax
  100d54:	88 45 ff             	mov    %al,-0x1(%ebp)
  100d57:	80 7d ff 07          	cmpb   $0x7,-0x1(%ebp)
  100d5b:	76 b2                	jbe    100d0f <crcu8+0x25>
  100d5d:	8b 45 e8             	mov    -0x18(%ebp),%eax
  100d60:	c9                   	leave  
  100d61:	c3                   	ret    

00100d62 <crcu16>:
  100d62:	55                   	push   %ebp
  100d63:	89 e5                	mov    %esp,%ebp
  100d65:	83 ec 08             	sub    $0x8,%esp
  100d68:	8b 55 08             	mov    0x8(%ebp),%edx
  100d6b:	8b 45 0c             	mov    0xc(%ebp),%eax
  100d6e:	66 89 55 fc          	mov    %dx,-0x4(%ebp)
  100d72:	66 89 45 f8          	mov    %ax,-0x8(%ebp)
  100d76:	0f b7 55 f8          	movzwl -0x8(%ebp),%edx
  100d7a:	8b 45 fc             	mov    -0x4(%ebp),%eax
  100d7d:	0f b6 c0             	movzbl %al,%eax
  100d80:	52                   	push   %edx
  100d81:	50                   	push   %eax
  100d82:	e8 63 ff ff ff       	call   100cea <crcu8>
  100d87:	83 c4 08             	add    $0x8,%esp
  100d8a:	66 89 45 f8          	mov    %ax,-0x8(%ebp)
  100d8e:	0f b7 55 f8          	movzwl -0x8(%ebp),%edx
  100d92:	8b 45 fc             	mov    -0x4(%ebp),%eax
  100d95:	66 c1 e8 08          	shr    $0x8,%ax
  100d99:	0f b6 c0             	movzbl %al,%eax
  100d9c:	52                   	push   %edx
  100d9d:	50                   	push   %eax
  100d9e:	e8 47 ff ff ff       	call   100cea <crcu8>
  100da3:	83 c4 08             	add    $0x8,%esp
  100da6:	66 89 45 f8          	mov    %ax,-0x8(%ebp)
  100daa:	8b 45 f8             	mov    -0x8(%ebp),%eax
  100dad:	c9                   	leave  
  100dae:	c3                   	ret    

00100daf <crcu32>:
  100daf:	55                   	push   %ebp
  100db0:	89 e5                	mov    %esp,%ebp
  100db2:	83 ec 18             	sub    $0x18,%esp
  100db5:	8b 45 0c             	mov    0xc(%ebp),%eax
  100db8:	66 89 45 f4          	mov    %ax,-0xc(%ebp)
  100dbc:	0f b7 55 f4          	movzwl -0xc(%ebp),%edx
  100dc0:	8b 45 08             	mov    0x8(%ebp),%eax
  100dc3:	98                   	cwtl   
  100dc4:	83 ec 08             	sub    $0x8,%esp
  100dc7:	52                   	push   %edx
  100dc8:	50                   	push   %eax
  100dc9:	e8 28 00 00 00       	call   100df6 <crc16>
  100dce:	83 c4 10             	add    $0x10,%esp
  100dd1:	66 89 45 f4          	mov    %ax,-0xc(%ebp)
  100dd5:	0f b7 55 f4          	movzwl -0xc(%ebp),%edx
  100dd9:	8b 45 08             	mov    0x8(%ebp),%eax
  100ddc:	c1 e8 10             	shr    $0x10,%eax
  100ddf:	98                   	cwtl   
  100de0:	83 ec 08             	sub    $0x8,%esp
  100de3:	52                   	push   %edx
  100de4:	50                   	push   %eax
  100de5:	e8 0c 00 00 00       	call   100df6 <crc16>
  100dea:	83 c4 10             	add    $0x10,%esp
  100ded:	66 89 45 f4          	mov    %ax,-0xc(%ebp)
  100df1:	8b 45 f4             	mov    -0xc(%ebp),%eax
  100df4:	c9                   	leave  
  100df5:	c3                   	ret    

00100df6 <crc16>:
  100df6:	55                   	push   %ebp
  100df7:	89 e5                	mov    %esp,%ebp
  100df9:	83 ec 08             	sub    $0x8,%esp
  100dfc:	8b 55 08             	mov    0x8(%ebp),%edx
  100dff:	8b 45 0c             	mov    0xc(%ebp),%eax
  100e02:	66 89 55 fc          	mov    %dx,-0x4(%ebp)
  100e06:	66 89 45 f8          	mov    %ax,-0x8(%ebp)
  100e0a:	0f b7 55 f8          	movzwl -0x8(%ebp),%edx
  100e0e:	8b 45 fc             	mov    -0x4(%ebp),%eax
  100e11:	0f b7 c0             	movzwl %ax,%eax
  100e14:	52                   	push   %edx
  100e15:	50                   	push   %eax
  100e16:	e8 47 ff ff ff       	call   100d62 <crcu16>
  100e1b:	83 c4 08             	add    $0x8,%esp
  100e1e:	c9                   	leave  
  100e1f:	c3                   	ret    

00100e20 <check_data_types>:
  100e20:	55                   	push   %ebp
  100e21:	89 e5                	mov    %esp,%ebp
  100e23:	83 ec 18             	sub    $0x18,%esp
  100e26:	c6 45 f7 00          	movb   $0x0,-0x9(%ebp)
  100e2a:	80 7d f7 00          	cmpb   $0x0,-0x9(%ebp)
  100e2e:	74 10                	je     100e40 <check_data_types+0x20>
  100e30:	83 ec 0c             	sub    $0xc,%esp
  100e33:	68 b4 2d 10 00       	push   $0x102db4
  100e38:	e8 49 16 00 00       	call   102486 <printf>
  100e3d:	83 c4 10             	add    $0x10,%esp
  100e40:	8a 45 f7             	mov    -0x9(%ebp),%al
  100e43:	c9                   	leave  
  100e44:	c3                   	ret    

00100e45 <core_bench_state>:
  100e45:	55                   	push   %ebp
  100e46:	89 e5                	mov    %esp,%ebp
  100e48:	53                   	push   %ebx
  100e49:	83 ec 64             	sub    $0x64,%esp
  100e4c:	8b 5d 10             	mov    0x10(%ebp),%ebx
  100e4f:	8b 4d 14             	mov    0x14(%ebp),%ecx
  100e52:	8b 55 18             	mov    0x18(%ebp),%edx
  100e55:	8b 45 1c             	mov    0x1c(%ebp),%eax
  100e58:	66 89 5d a4          	mov    %bx,-0x5c(%ebp)
  100e5c:	66 89 4d a0          	mov    %cx,-0x60(%ebp)
  100e60:	66 89 55 9c          	mov    %dx,-0x64(%ebp)
  100e64:	66 89 45 98          	mov    %ax,-0x68(%ebp)
  100e68:	8b 45 0c             	mov    0xc(%ebp),%eax
  100e6b:	89 45 a8             	mov    %eax,-0x58(%ebp)
  100e6e:	c7 45 f4 00 00 00 00 	movl   $0x0,-0xc(%ebp)
  100e75:	eb 1c                	jmp    100e93 <core_bench_state+0x4e>
  100e77:	8b 45 f4             	mov    -0xc(%ebp),%eax
  100e7a:	c7 44 85 ac 00 00 00 	movl   $0x0,-0x54(%ebp,%eax,4)
  100e81:	00 
  100e82:	8b 45 f4             	mov    -0xc(%ebp),%eax
  100e85:	8b 54 85 ac          	mov    -0x54(%ebp,%eax,4),%edx
  100e89:	8b 45 f4             	mov    -0xc(%ebp),%eax
  100e8c:	89 54 85 cc          	mov    %edx,-0x34(%ebp,%eax,4)
  100e90:	ff 45 f4             	incl   -0xc(%ebp)
  100e93:	83 7d f4 07          	cmpl   $0x7,-0xc(%ebp)
  100e97:	76 de                	jbe    100e77 <core_bench_state+0x32>
  100e99:	eb 27                	jmp    100ec2 <core_bench_state+0x7d>
  100e9b:	83 ec 08             	sub    $0x8,%esp
  100e9e:	8d 45 ac             	lea    -0x54(%ebp),%eax
  100ea1:	50                   	push   %eax
  100ea2:	8d 45 a8             	lea    -0x58(%ebp),%eax
  100ea5:	50                   	push   %eax
  100ea6:	e8 b9 02 00 00       	call   101164 <core_state_transition>
  100eab:	83 c4 10             	add    $0x10,%esp
  100eae:	89 45 ec             	mov    %eax,-0x14(%ebp)
  100eb1:	8b 45 ec             	mov    -0x14(%ebp),%eax
  100eb4:	8b 44 85 cc          	mov    -0x34(%ebp,%eax,4),%eax
  100eb8:	8d 50 01             	lea    0x1(%eax),%edx
  100ebb:	8b 45 ec             	mov    -0x14(%ebp),%eax
  100ebe:	89 54 85 cc          	mov    %edx,-0x34(%ebp,%eax,4)
  100ec2:	8b 45 a8             	mov    -0x58(%ebp),%eax
  100ec5:	8a 00                	mov    (%eax),%al
  100ec7:	84 c0                	test   %al,%al
  100ec9:	75 d0                	jne    100e9b <core_bench_state+0x56>
  100ecb:	8b 45 0c             	mov    0xc(%ebp),%eax
  100ece:	89 45 a8             	mov    %eax,-0x58(%ebp)
  100ed1:	eb 26                	jmp    100ef9 <core_bench_state+0xb4>
  100ed3:	8b 45 a8             	mov    -0x58(%ebp),%eax
  100ed6:	8a 00                	mov    (%eax),%al
  100ed8:	3c 2c                	cmp    $0x2c,%al
  100eda:	74 11                	je     100eed <core_bench_state+0xa8>
  100edc:	8b 45 a8             	mov    -0x58(%ebp),%eax
  100edf:	8a 10                	mov    (%eax),%dl
  100ee1:	8b 45 a4             	mov    -0x5c(%ebp),%eax
  100ee4:	88 c1                	mov    %al,%cl
  100ee6:	8b 45 a8             	mov    -0x58(%ebp),%eax
  100ee9:	31 ca                	xor    %ecx,%edx
  100eeb:	88 10                	mov    %dl,(%eax)
  100eed:	8b 55 a8             	mov    -0x58(%ebp),%edx
  100ef0:	0f bf 45 9c          	movswl -0x64(%ebp),%eax
  100ef4:	01 d0                	add    %edx,%eax
  100ef6:	89 45 a8             	mov    %eax,-0x58(%ebp)
  100ef9:	8b 55 0c             	mov    0xc(%ebp),%edx
  100efc:	8b 45 08             	mov    0x8(%ebp),%eax
  100eff:	01 c2                	add    %eax,%edx
  100f01:	8b 45 a8             	mov    -0x58(%ebp),%eax
  100f04:	39 c2                	cmp    %eax,%edx
  100f06:	77 cb                	ja     100ed3 <core_bench_state+0x8e>
  100f08:	8b 45 0c             	mov    0xc(%ebp),%eax
  100f0b:	89 45 a8             	mov    %eax,-0x58(%ebp)
  100f0e:	eb 27                	jmp    100f37 <core_bench_state+0xf2>
  100f10:	83 ec 08             	sub    $0x8,%esp
  100f13:	8d 45 ac             	lea    -0x54(%ebp),%eax
  100f16:	50                   	push   %eax
  100f17:	8d 45 a8             	lea    -0x58(%ebp),%eax
  100f1a:	50                   	push   %eax
  100f1b:	e8 44 02 00 00       	call   101164 <core_state_transition>
  100f20:	83 c4 10             	add    $0x10,%esp
  100f23:	89 45 f0             	mov    %eax,-0x10(%ebp)
  100f26:	8b 45 f0             	mov    -0x10(%ebp),%eax
  100f29:	8b 44 85 cc          	mov    -0x34(%ebp,%eax,4),%eax
  100f2d:	8d 50 01             	lea    0x1(%eax),%edx
  100f30:	8b 45 f0             	mov    -0x10(%ebp),%eax
  100f33:	89 54 85 cc          	mov    %edx,-0x34(%ebp,%eax,4)
  100f37:	8b 45 a8             	mov    -0x58(%ebp),%eax
  100f3a:	8a 00                	mov    (%eax),%al
  100f3c:	84 c0                	test   %al,%al
  100f3e:	75 d0                	jne    100f10 <core_bench_state+0xcb>
  100f40:	8b 45 0c             	mov    0xc(%ebp),%eax
  100f43:	89 45 a8             	mov    %eax,-0x58(%ebp)
  100f46:	eb 26                	jmp    100f6e <core_bench_state+0x129>
  100f48:	8b 45 a8             	mov    -0x58(%ebp),%eax
  100f4b:	8a 00                	mov    (%eax),%al
  100f4d:	3c 2c                	cmp    $0x2c,%al
  100f4f:	74 11                	je     100f62 <core_bench_state+0x11d>
  100f51:	8b 45 a8             	mov    -0x58(%ebp),%eax
  100f54:	8a 10                	mov    (%eax),%dl
  100f56:	8b 45 a0             	mov    -0x60(%ebp),%eax
  100f59:	88 c1                	mov    %al,%cl
  100f5b:	8b 45 a8             	mov    -0x58(%ebp),%eax
  100f5e:	31 ca                	xor    %ecx,%edx
  100f60:	88 10                	mov    %dl,(%eax)
  100f62:	8b 55 a8             	mov    -0x58(%ebp),%edx
  100f65:	0f bf 45 9c          	movswl -0x64(%ebp),%eax
  100f69:	01 d0                	add    %edx,%eax
  100f6b:	89 45 a8             	mov    %eax,-0x58(%ebp)
  100f6e:	8b 55 0c             	mov    0xc(%ebp),%edx
  100f71:	8b 45 08             	mov    0x8(%ebp),%eax
  100f74:	01 c2                	add    %eax,%edx
  100f76:	8b 45 a8             	mov    -0x58(%ebp),%eax
  100f79:	39 c2                	cmp    %eax,%edx
  100f7b:	77 cb                	ja     100f48 <core_bench_state+0x103>
  100f7d:	c7 45 f4 00 00 00 00 	movl   $0x0,-0xc(%ebp)
  100f84:	eb 3b                	jmp    100fc1 <core_bench_state+0x17c>
  100f86:	0f b7 55 98          	movzwl -0x68(%ebp),%edx
  100f8a:	8b 45 f4             	mov    -0xc(%ebp),%eax
  100f8d:	8b 44 85 cc          	mov    -0x34(%ebp,%eax,4),%eax
  100f91:	83 ec 08             	sub    $0x8,%esp
  100f94:	52                   	push   %edx
  100f95:	50                   	push   %eax
  100f96:	e8 14 fe ff ff       	call   100daf <crcu32>
  100f9b:	83 c4 10             	add    $0x10,%esp
  100f9e:	66 89 45 98          	mov    %ax,-0x68(%ebp)
  100fa2:	0f b7 55 98          	movzwl -0x68(%ebp),%edx
  100fa6:	8b 45 f4             	mov    -0xc(%ebp),%eax
  100fa9:	8b 44 85 ac          	mov    -0x54(%ebp,%eax,4),%eax
  100fad:	83 ec 08             	sub    $0x8,%esp
  100fb0:	52                   	push   %edx
  100fb1:	50                   	push   %eax
  100fb2:	e8 f8 fd ff ff       	call   100daf <crcu32>
  100fb7:	83 c4 10             	add    $0x10,%esp
  100fba:	66 89 45 98          	mov    %ax,-0x68(%ebp)
  100fbe:	ff 45 f4             	incl   -0xc(%ebp)
  100fc1:	83 7d f4 07          	cmpl   $0x7,-0xc(%ebp)
  100fc5:	76 bf                	jbe    100f86 <core_bench_state+0x141>
  100fc7:	8b 45 98             	mov    -0x68(%ebp),%eax
  100fca:	8b 5d fc             	mov    -0x4(%ebp),%ebx
  100fcd:	c9                   	leave  
  100fce:	c3                   	ret    

00100fcf <core_init_state>:
  100fcf:	55                   	push   %ebp
  100fd0:	89 e5                	mov    %esp,%ebp
  100fd2:	83 ec 14             	sub    $0x14,%esp
  100fd5:	8b 45 0c             	mov    0xc(%ebp),%eax
  100fd8:	66 89 45 ec          	mov    %ax,-0x14(%ebp)
  100fdc:	c7 45 fc 00 00 00 00 	movl   $0x0,-0x4(%ebp)
  100fe3:	c7 45 f8 00 00 00 00 	movl   $0x0,-0x8(%ebp)
  100fea:	c7 45 f0 00 00 00 00 	movl   $0x0,-0x10(%ebp)
  100ff1:	ff 4d 08             	decl   0x8(%ebp)
  100ff4:	c7 45 f8 00 00 00 00 	movl   $0x0,-0x8(%ebp)
  100ffb:	e9 0f 01 00 00       	jmp    10110f <core_init_state+0x140>
  101000:	83 7d f8 00          	cmpl   $0x0,-0x8(%ebp)
  101004:	74 49                	je     10104f <core_init_state+0x80>
  101006:	c7 45 f4 00 00 00 00 	movl   $0x0,-0xc(%ebp)
  10100d:	eb 1c                	jmp    10102b <core_init_state+0x5c>
  10100f:	8b 55 f0             	mov    -0x10(%ebp),%edx
  101012:	8b 45 f4             	mov    -0xc(%ebp),%eax
  101015:	01 d0                	add    %edx,%eax
  101017:	8b 4d fc             	mov    -0x4(%ebp),%ecx
  10101a:	8b 55 f4             	mov    -0xc(%ebp),%edx
  10101d:	01 d1                	add    %edx,%ecx
  10101f:	8b 55 10             	mov    0x10(%ebp),%edx
  101022:	01 ca                	add    %ecx,%edx
  101024:	8a 00                	mov    (%eax),%al
  101026:	88 02                	mov    %al,(%edx)
  101028:	ff 45 f4             	incl   -0xc(%ebp)
  10102b:	8b 45 f4             	mov    -0xc(%ebp),%eax
  10102e:	3b 45 f8             	cmp    -0x8(%ebp),%eax
  101031:	72 dc                	jb     10100f <core_init_state+0x40>
  101033:	8b 55 fc             	mov    -0x4(%ebp),%edx
  101036:	8b 45 f4             	mov    -0xc(%ebp),%eax
  101039:	01 c2                	add    %eax,%edx
  10103b:	8b 45 10             	mov    0x10(%ebp),%eax
  10103e:	01 d0                	add    %edx,%eax
  101040:	c6 00 2c             	movb   $0x2c,(%eax)
  101043:	8b 55 f8             	mov    -0x8(%ebp),%edx
  101046:	8b 45 fc             	mov    -0x4(%ebp),%eax
  101049:	01 d0                	add    %edx,%eax
  10104b:	40                   	inc    %eax
  10104c:	89 45 fc             	mov    %eax,-0x4(%ebp)
  10104f:	8b 45 ec             	mov    -0x14(%ebp),%eax
  101052:	40                   	inc    %eax
  101053:	66 89 45 ec          	mov    %ax,-0x14(%ebp)
  101057:	0f bf 45 ec          	movswl -0x14(%ebp),%eax
  10105b:	83 e0 07             	and    $0x7,%eax
  10105e:	83 f8 07             	cmp    $0x7,%eax
  101061:	0f 84 89 00 00 00    	je     1010f0 <core_init_state+0x121>
  101067:	83 f8 07             	cmp    $0x7,%eax
  10106a:	0f 8f 9e 00 00 00    	jg     10110e <core_init_state+0x13f>
  101070:	83 f8 06             	cmp    $0x6,%eax
  101073:	0f 8f 95 00 00 00    	jg     10110e <core_init_state+0x13f>
  101079:	83 f8 05             	cmp    $0x5,%eax
  10107c:	7d 54                	jge    1010d2 <core_init_state+0x103>
  10107e:	83 f8 02             	cmp    $0x2,%eax
  101081:	7f 09                	jg     10108c <core_init_state+0xbd>
  101083:	85 c0                	test   %eax,%eax
  101085:	79 0f                	jns    101096 <core_init_state+0xc7>
  101087:	e9 82 00 00 00       	jmp    10110e <core_init_state+0x13f>
  10108c:	83 e8 03             	sub    $0x3,%eax
  10108f:	83 f8 01             	cmp    $0x1,%eax
  101092:	77 7a                	ja     10110e <core_init_state+0x13f>
  101094:	eb 1e                	jmp    1010b4 <core_init_state+0xe5>
  101096:	8b 45 ec             	mov    -0x14(%ebp),%eax
  101099:	66 c1 f8 03          	sar    $0x3,%ax
  10109d:	98                   	cwtl   
  10109e:	83 e0 03             	and    $0x3,%eax
  1010a1:	8b 04 85 50 2f 10 00 	mov    0x102f50(,%eax,4),%eax
  1010a8:	89 45 f0             	mov    %eax,-0x10(%ebp)
  1010ab:	c7 45 f8 04 00 00 00 	movl   $0x4,-0x8(%ebp)
  1010b2:	eb 5b                	jmp    10110f <core_init_state+0x140>
  1010b4:	8b 45 ec             	mov    -0x14(%ebp),%eax
  1010b7:	66 c1 f8 03          	sar    $0x3,%ax
  1010bb:	98                   	cwtl   
  1010bc:	83 e0 03             	and    $0x3,%eax
  1010bf:	8b 04 85 60 2f 10 00 	mov    0x102f60(,%eax,4),%eax
  1010c6:	89 45 f0             	mov    %eax,-0x10(%ebp)
  1010c9:	c7 45 f8 08 00 00 00 	movl   $0x8,-0x8(%ebp)
  1010d0:	eb 3d                	jmp    10110f <core_init_state+0x140>
  1010d2:	8b 45 ec             	mov    -0x14(%ebp),%eax
  1010d5:	66 c1 f8 03          	sar    $0x3,%ax
  1010d9:	98                   	cwtl   
  1010da:	83 e0 03             	and    $0x3,%eax
  1010dd:	8b 04 85 70 2f 10 00 	mov    0x102f70(,%eax,4),%eax
  1010e4:	89 45 f0             	mov    %eax,-0x10(%ebp)
  1010e7:	c7 45 f8 08 00 00 00 	movl   $0x8,-0x8(%ebp)
  1010ee:	eb 1f                	jmp    10110f <core_init_state+0x140>
  1010f0:	8b 45 ec             	mov    -0x14(%ebp),%eax
  1010f3:	66 c1 f8 03          	sar    $0x3,%ax
  1010f7:	98                   	cwtl   
  1010f8:	83 e0 03             	and    $0x3,%eax
  1010fb:	8b 04 85 80 2f 10 00 	mov    0x102f80(,%eax,4),%eax
  101102:	89 45 f0             	mov    %eax,-0x10(%ebp)
  101105:	c7 45 f8 08 00 00 00 	movl   $0x8,-0x8(%ebp)
  10110c:	eb 01                	jmp    10110f <core_init_state+0x140>
  10110e:	90                   	nop
  10110f:	8b 55 fc             	mov    -0x4(%ebp),%edx
  101112:	8b 45 f8             	mov    -0x8(%ebp),%eax
  101115:	01 d0                	add    %edx,%eax
  101117:	40                   	inc    %eax
  101118:	39 45 08             	cmp    %eax,0x8(%ebp)
  10111b:	0f 87 df fe ff ff    	ja     101000 <core_init_state+0x31>
  101121:	ff 45 08             	incl   0x8(%ebp)
  101124:	eb 0e                	jmp    101134 <core_init_state+0x165>
  101126:	8b 55 10             	mov    0x10(%ebp),%edx
  101129:	8b 45 fc             	mov    -0x4(%ebp),%eax
  10112c:	01 d0                	add    %edx,%eax
  10112e:	c6 00 00             	movb   $0x0,(%eax)
  101131:	ff 45 fc             	incl   -0x4(%ebp)
  101134:	8b 45 fc             	mov    -0x4(%ebp),%eax
  101137:	3b 45 08             	cmp    0x8(%ebp),%eax
  10113a:	72 ea                	jb     101126 <core_init_state+0x157>
  10113c:	90                   	nop
  10113d:	90                   	nop
  10113e:	c9                   	leave  
  10113f:	c3                   	ret    

00101140 <ee_isdigit>:
  101140:	55                   	push   %ebp
  101141:	89 e5                	mov    %esp,%ebp
  101143:	83 ec 14             	sub    $0x14,%esp
  101146:	8b 45 08             	mov    0x8(%ebp),%eax
  101149:	88 45 ec             	mov    %al,-0x14(%ebp)
  10114c:	80 7d ec 2f          	cmpb   $0x2f,-0x14(%ebp)
  101150:	0f 97 c2             	seta   %dl
  101153:	80 7d ec 39          	cmpb   $0x39,-0x14(%ebp)
  101157:	0f 96 c0             	setbe  %al
  10115a:	21 d0                	and    %edx,%eax
  10115c:	88 45 ff             	mov    %al,-0x1(%ebp)
  10115f:	8a 45 ff             	mov    -0x1(%ebp),%al
  101162:	c9                   	leave  
  101163:	c3                   	ret    

00101164 <core_state_transition>:
  101164:	55                   	push   %ebp
  101165:	89 e5                	mov    %esp,%ebp
  101167:	83 ec 10             	sub    $0x10,%esp
  10116a:	8b 45 08             	mov    0x8(%ebp),%eax
  10116d:	8b 00                	mov    (%eax),%eax
  10116f:	89 45 fc             	mov    %eax,-0x4(%ebp)
  101172:	c7 45 f8 00 00 00 00 	movl   $0x0,-0x8(%ebp)
  101179:	e9 24 02 00 00       	jmp    1013a2 <core_state_transition+0x23e>
  10117e:	8b 45 fc             	mov    -0x4(%ebp),%eax
  101181:	8a 00                	mov    (%eax),%al
  101183:	88 45 f7             	mov    %al,-0x9(%ebp)
  101186:	80 7d f7 2c          	cmpb   $0x2c,-0x9(%ebp)
  10118a:	75 08                	jne    101194 <core_state_transition+0x30>
  10118c:	ff 45 fc             	incl   -0x4(%ebp)
  10118f:	e9 21 02 00 00       	jmp    1013b5 <core_state_transition+0x251>
  101194:	83 7d f8 07          	cmpl   $0x7,-0x8(%ebp)
  101198:	0f 87 f7 01 00 00    	ja     101395 <core_state_transition+0x231>
  10119e:	8b 45 f8             	mov    -0x8(%ebp),%eax
  1011a1:	c1 e0 02             	shl    $0x2,%eax
  1011a4:	05 6c 2e 10 00       	add    $0x102e6c,%eax
  1011a9:	8b 00                	mov    (%eax),%eax
  1011ab:	ff e0                	jmp    *%eax
  1011ad:	0f b6 45 f7          	movzbl -0x9(%ebp),%eax
  1011b1:	50                   	push   %eax
  1011b2:	e8 89 ff ff ff       	call   101140 <ee_isdigit>
  1011b7:	83 c4 04             	add    $0x4,%esp
  1011ba:	84 c0                	test   %al,%al
  1011bc:	74 09                	je     1011c7 <core_state_transition+0x63>
  1011be:	c7 45 f8 04 00 00 00 	movl   $0x4,-0x8(%ebp)
  1011c5:	eb 36                	jmp    1011fd <core_state_transition+0x99>
  1011c7:	80 7d f7 2b          	cmpb   $0x2b,-0x9(%ebp)
  1011cb:	74 06                	je     1011d3 <core_state_transition+0x6f>
  1011cd:	80 7d f7 2d          	cmpb   $0x2d,-0x9(%ebp)
  1011d1:	75 09                	jne    1011dc <core_state_transition+0x78>
  1011d3:	c7 45 f8 02 00 00 00 	movl   $0x2,-0x8(%ebp)
  1011da:	eb 21                	jmp    1011fd <core_state_transition+0x99>
  1011dc:	80 7d f7 2e          	cmpb   $0x2e,-0x9(%ebp)
  1011e0:	75 09                	jne    1011eb <core_state_transition+0x87>
  1011e2:	c7 45 f8 05 00 00 00 	movl   $0x5,-0x8(%ebp)
  1011e9:	eb 12                	jmp    1011fd <core_state_transition+0x99>
  1011eb:	c7 45 f8 01 00 00 00 	movl   $0x1,-0x8(%ebp)
  1011f2:	8b 45 0c             	mov    0xc(%ebp),%eax
  1011f5:	83 c0 04             	add    $0x4,%eax
  1011f8:	8b 10                	mov    (%eax),%edx
  1011fa:	42                   	inc    %edx
  1011fb:	89 10                	mov    %edx,(%eax)
  1011fd:	8b 45 0c             	mov    0xc(%ebp),%eax
  101200:	8b 00                	mov    (%eax),%eax
  101202:	8d 50 01             	lea    0x1(%eax),%edx
  101205:	8b 45 0c             	mov    0xc(%ebp),%eax
  101208:	89 10                	mov    %edx,(%eax)
  10120a:	e9 90 01 00 00       	jmp    10139f <core_state_transition+0x23b>
  10120f:	0f b6 45 f7          	movzbl -0x9(%ebp),%eax
  101213:	50                   	push   %eax
  101214:	e8 27 ff ff ff       	call   101140 <ee_isdigit>
  101219:	83 c4 04             	add    $0x4,%esp
  10121c:	84 c0                	test   %al,%al
  10121e:	74 17                	je     101237 <core_state_transition+0xd3>
  101220:	c7 45 f8 04 00 00 00 	movl   $0x4,-0x8(%ebp)
  101227:	8b 45 0c             	mov    0xc(%ebp),%eax
  10122a:	83 c0 08             	add    $0x8,%eax
  10122d:	8b 10                	mov    (%eax),%edx
  10122f:	42                   	inc    %edx
  101230:	89 10                	mov    %edx,(%eax)
  101232:	e9 68 01 00 00       	jmp    10139f <core_state_transition+0x23b>
  101237:	80 7d f7 2e          	cmpb   $0x2e,-0x9(%ebp)
  10123b:	75 17                	jne    101254 <core_state_transition+0xf0>
  10123d:	c7 45 f8 05 00 00 00 	movl   $0x5,-0x8(%ebp)
  101244:	8b 45 0c             	mov    0xc(%ebp),%eax
  101247:	83 c0 08             	add    $0x8,%eax
  10124a:	8b 10                	mov    (%eax),%edx
  10124c:	42                   	inc    %edx
  10124d:	89 10                	mov    %edx,(%eax)
  10124f:	e9 4b 01 00 00       	jmp    10139f <core_state_transition+0x23b>
  101254:	c7 45 f8 01 00 00 00 	movl   $0x1,-0x8(%ebp)
  10125b:	8b 45 0c             	mov    0xc(%ebp),%eax
  10125e:	83 c0 08             	add    $0x8,%eax
  101261:	8b 10                	mov    (%eax),%edx
  101263:	42                   	inc    %edx
  101264:	89 10                	mov    %edx,(%eax)
  101266:	e9 34 01 00 00       	jmp    10139f <core_state_transition+0x23b>
  10126b:	80 7d f7 2e          	cmpb   $0x2e,-0x9(%ebp)
  10126f:	75 17                	jne    101288 <core_state_transition+0x124>
  101271:	c7 45 f8 05 00 00 00 	movl   $0x5,-0x8(%ebp)
  101278:	8b 45 0c             	mov    0xc(%ebp),%eax
  10127b:	83 c0 10             	add    $0x10,%eax
  10127e:	8b 10                	mov    (%eax),%edx
  101280:	42                   	inc    %edx
  101281:	89 10                	mov    %edx,(%eax)
  101283:	e9 10 01 00 00       	jmp    101398 <core_state_transition+0x234>
  101288:	0f b6 45 f7          	movzbl -0x9(%ebp),%eax
  10128c:	50                   	push   %eax
  10128d:	e8 ae fe ff ff       	call   101140 <ee_isdigit>
  101292:	83 c4 04             	add    $0x4,%esp
  101295:	84 c0                	test   %al,%al
  101297:	0f 85 fb 00 00 00    	jne    101398 <core_state_transition+0x234>
  10129d:	c7 45 f8 01 00 00 00 	movl   $0x1,-0x8(%ebp)
  1012a4:	8b 45 0c             	mov    0xc(%ebp),%eax
  1012a7:	83 c0 10             	add    $0x10,%eax
  1012aa:	8b 10                	mov    (%eax),%edx
  1012ac:	42                   	inc    %edx
  1012ad:	89 10                	mov    %edx,(%eax)
  1012af:	e9 e4 00 00 00       	jmp    101398 <core_state_transition+0x234>
  1012b4:	80 7d f7 45          	cmpb   $0x45,-0x9(%ebp)
  1012b8:	74 06                	je     1012c0 <core_state_transition+0x15c>
  1012ba:	80 7d f7 65          	cmpb   $0x65,-0x9(%ebp)
  1012be:	75 17                	jne    1012d7 <core_state_transition+0x173>
  1012c0:	c7 45 f8 03 00 00 00 	movl   $0x3,-0x8(%ebp)
  1012c7:	8b 45 0c             	mov    0xc(%ebp),%eax
  1012ca:	83 c0 14             	add    $0x14,%eax
  1012cd:	8b 10                	mov    (%eax),%edx
  1012cf:	42                   	inc    %edx
  1012d0:	89 10                	mov    %edx,(%eax)
  1012d2:	e9 c4 00 00 00       	jmp    10139b <core_state_transition+0x237>
  1012d7:	0f b6 45 f7          	movzbl -0x9(%ebp),%eax
  1012db:	50                   	push   %eax
  1012dc:	e8 5f fe ff ff       	call   101140 <ee_isdigit>
  1012e1:	83 c4 04             	add    $0x4,%esp
  1012e4:	84 c0                	test   %al,%al
  1012e6:	0f 85 af 00 00 00    	jne    10139b <core_state_transition+0x237>
  1012ec:	c7 45 f8 01 00 00 00 	movl   $0x1,-0x8(%ebp)
  1012f3:	8b 45 0c             	mov    0xc(%ebp),%eax
  1012f6:	83 c0 14             	add    $0x14,%eax
  1012f9:	8b 10                	mov    (%eax),%edx
  1012fb:	42                   	inc    %edx
  1012fc:	89 10                	mov    %edx,(%eax)
  1012fe:	e9 98 00 00 00       	jmp    10139b <core_state_transition+0x237>
  101303:	80 7d f7 2b          	cmpb   $0x2b,-0x9(%ebp)
  101307:	74 06                	je     10130f <core_state_transition+0x1ab>
  101309:	80 7d f7 2d          	cmpb   $0x2d,-0x9(%ebp)
  10130d:	75 14                	jne    101323 <core_state_transition+0x1bf>
  10130f:	c7 45 f8 06 00 00 00 	movl   $0x6,-0x8(%ebp)
  101316:	8b 45 0c             	mov    0xc(%ebp),%eax
  101319:	83 c0 0c             	add    $0xc,%eax
  10131c:	8b 10                	mov    (%eax),%edx
  10131e:	42                   	inc    %edx
  10131f:	89 10                	mov    %edx,(%eax)
  101321:	eb 7c                	jmp    10139f <core_state_transition+0x23b>
  101323:	c7 45 f8 01 00 00 00 	movl   $0x1,-0x8(%ebp)
  10132a:	8b 45 0c             	mov    0xc(%ebp),%eax
  10132d:	83 c0 0c             	add    $0xc,%eax
  101330:	8b 10                	mov    (%eax),%edx
  101332:	42                   	inc    %edx
  101333:	89 10                	mov    %edx,(%eax)
  101335:	eb 68                	jmp    10139f <core_state_transition+0x23b>
  101337:	0f b6 45 f7          	movzbl -0x9(%ebp),%eax
  10133b:	50                   	push   %eax
  10133c:	e8 ff fd ff ff       	call   101140 <ee_isdigit>
  101341:	83 c4 04             	add    $0x4,%esp
  101344:	84 c0                	test   %al,%al
  101346:	74 14                	je     10135c <core_state_transition+0x1f8>
  101348:	c7 45 f8 07 00 00 00 	movl   $0x7,-0x8(%ebp)
  10134f:	8b 45 0c             	mov    0xc(%ebp),%eax
  101352:	83 c0 18             	add    $0x18,%eax
  101355:	8b 10                	mov    (%eax),%edx
  101357:	42                   	inc    %edx
  101358:	89 10                	mov    %edx,(%eax)
  10135a:	eb 43                	jmp    10139f <core_state_transition+0x23b>
  10135c:	c7 45 f8 01 00 00 00 	movl   $0x1,-0x8(%ebp)
  101363:	8b 45 0c             	mov    0xc(%ebp),%eax
  101366:	83 c0 18             	add    $0x18,%eax
  101369:	8b 10                	mov    (%eax),%edx
  10136b:	42                   	inc    %edx
  10136c:	89 10                	mov    %edx,(%eax)
  10136e:	eb 2f                	jmp    10139f <core_state_transition+0x23b>
  101370:	0f b6 45 f7          	movzbl -0x9(%ebp),%eax
  101374:	50                   	push   %eax
  101375:	e8 c6 fd ff ff       	call   101140 <ee_isdigit>
  10137a:	83 c4 04             	add    $0x4,%esp
  10137d:	84 c0                	test   %al,%al
  10137f:	75 1d                	jne    10139e <core_state_transition+0x23a>
  101381:	c7 45 f8 01 00 00 00 	movl   $0x1,-0x8(%ebp)
  101388:	8b 45 0c             	mov    0xc(%ebp),%eax
  10138b:	83 c0 04             	add    $0x4,%eax
  10138e:	8b 10                	mov    (%eax),%edx
  101390:	42                   	inc    %edx
  101391:	89 10                	mov    %edx,(%eax)
  101393:	eb 09                	jmp    10139e <core_state_transition+0x23a>
  101395:	90                   	nop
  101396:	eb 07                	jmp    10139f <core_state_transition+0x23b>
  101398:	90                   	nop
  101399:	eb 04                	jmp    10139f <core_state_transition+0x23b>
  10139b:	90                   	nop
  10139c:	eb 01                	jmp    10139f <core_state_transition+0x23b>
  10139e:	90                   	nop
  10139f:	ff 45 fc             	incl   -0x4(%ebp)
  1013a2:	8b 45 fc             	mov    -0x4(%ebp),%eax
  1013a5:	8a 00                	mov    (%eax),%al
  1013a7:	84 c0                	test   %al,%al
  1013a9:	74 0a                	je     1013b5 <core_state_transition+0x251>
  1013ab:	83 7d f8 01          	cmpl   $0x1,-0x8(%ebp)
  1013af:	0f 85 c9 fd ff ff    	jne    10117e <core_state_transition+0x1a>
  1013b5:	8b 45 08             	mov    0x8(%ebp),%eax
  1013b8:	8b 55 fc             	mov    -0x4(%ebp),%edx
  1013bb:	89 10                	mov    %edx,(%eax)
  1013bd:	8b 45 f8             	mov    -0x8(%ebp),%eax
  1013c0:	c9                   	leave  
  1013c1:	c3                   	ret    

001013c2 <core_bench_matrix>:
  1013c2:	55                   	push   %ebp
  1013c3:	89 e5                	mov    %esp,%ebp
  1013c5:	53                   	push   %ebx
  1013c6:	83 ec 34             	sub    $0x34,%esp
  1013c9:	8b 55 0c             	mov    0xc(%ebp),%edx
  1013cc:	8b 45 10             	mov    0x10(%ebp),%eax
  1013cf:	66 89 55 d4          	mov    %dx,-0x2c(%ebp)
  1013d3:	66 89 45 d0          	mov    %ax,-0x30(%ebp)
  1013d7:	8b 45 08             	mov    0x8(%ebp),%eax
  1013da:	8b 00                	mov    (%eax),%eax
  1013dc:	89 45 f4             	mov    %eax,-0xc(%ebp)
  1013df:	8b 45 08             	mov    0x8(%ebp),%eax
  1013e2:	8b 40 0c             	mov    0xc(%eax),%eax
  1013e5:	89 45 f0             	mov    %eax,-0x10(%ebp)
  1013e8:	8b 45 08             	mov    0x8(%ebp),%eax
  1013eb:	8b 40 04             	mov    0x4(%eax),%eax
  1013ee:	89 45 ec             	mov    %eax,-0x14(%ebp)
  1013f1:	8b 45 08             	mov    0x8(%ebp),%eax
  1013f4:	8b 40 08             	mov    0x8(%eax),%eax
  1013f7:	89 45 e8             	mov    %eax,-0x18(%ebp)
  1013fa:	8b 45 d4             	mov    -0x2c(%ebp),%eax
  1013fd:	66 89 45 e6          	mov    %ax,-0x1a(%ebp)
  101401:	0f b7 5d d0          	movzwl -0x30(%ebp),%ebx
  101405:	0f bf 45 e6          	movswl -0x1a(%ebp),%eax
  101409:	83 ec 0c             	sub    $0xc,%esp
  10140c:	50                   	push   %eax
  10140d:	ff 75 e8             	pushl  -0x18(%ebp)
  101410:	ff 75 ec             	pushl  -0x14(%ebp)
  101413:	ff 75 f0             	pushl  -0x10(%ebp)
  101416:	ff 75 f4             	pushl  -0xc(%ebp)
  101419:	e8 1d 00 00 00       	call   10143b <matrix_test>
  10141e:	83 c4 20             	add    $0x20,%esp
  101421:	98                   	cwtl   
  101422:	83 ec 08             	sub    $0x8,%esp
  101425:	53                   	push   %ebx
  101426:	50                   	push   %eax
  101427:	e8 ca f9 ff ff       	call   100df6 <crc16>
  10142c:	83 c4 10             	add    $0x10,%esp
  10142f:	66 89 45 d0          	mov    %ax,-0x30(%ebp)
  101433:	8b 45 d0             	mov    -0x30(%ebp),%eax
  101436:	8b 5d fc             	mov    -0x4(%ebp),%ebx
  101439:	c9                   	leave  
  10143a:	c3                   	ret    

0010143b <matrix_test>:
  10143b:	55                   	push   %ebp
  10143c:	89 e5                	mov    %esp,%ebp
  10143e:	53                   	push   %ebx
  10143f:	83 ec 24             	sub    $0x24,%esp
  101442:	8b 45 18             	mov    0x18(%ebp),%eax
  101445:	66 89 45 e4          	mov    %ax,-0x1c(%ebp)
  101449:	66 c7 45 f6 00 00    	movw   $0x0,-0xa(%ebp)
  10144f:	8b 45 e4             	mov    -0x1c(%ebp),%eax
  101452:	0d 00 f0 ff ff       	or     $0xfffff000,%eax
  101457:	66 89 45 f4          	mov    %ax,-0xc(%ebp)
  10145b:	0f bf 45 e4          	movswl -0x1c(%ebp),%eax
  10145f:	83 ec 04             	sub    $0x4,%esp
  101462:	50                   	push   %eax
  101463:	ff 75 10             	pushl  0x10(%ebp)
  101466:	ff 75 08             	pushl  0x8(%ebp)
  101469:	e8 b4 03 00 00       	call   101822 <matrix_add_const>
  10146e:	83 c4 10             	add    $0x10,%esp
  101471:	0f bf 45 e4          	movswl -0x1c(%ebp),%eax
  101475:	50                   	push   %eax
  101476:	ff 75 10             	pushl  0x10(%ebp)
  101479:	ff 75 0c             	pushl  0xc(%ebp)
  10147c:	ff 75 08             	pushl  0x8(%ebp)
  10147f:	e8 1e 03 00 00       	call   1017a2 <matrix_mul_const>
  101484:	83 c4 10             	add    $0x10,%esp
  101487:	0f b7 5d f6          	movzwl -0xa(%ebp),%ebx
  10148b:	0f bf 45 f4          	movswl -0xc(%ebp),%eax
  10148f:	83 ec 04             	sub    $0x4,%esp
  101492:	50                   	push   %eax
  101493:	ff 75 0c             	pushl  0xc(%ebp)
  101496:	ff 75 08             	pushl  0x8(%ebp)
  101499:	e8 50 02 00 00       	call   1016ee <matrix_sum>
  10149e:	83 c4 10             	add    $0x10,%esp
  1014a1:	98                   	cwtl   
  1014a2:	83 ec 08             	sub    $0x8,%esp
  1014a5:	53                   	push   %ebx
  1014a6:	50                   	push   %eax
  1014a7:	e8 4a f9 ff ff       	call   100df6 <crc16>
  1014ac:	83 c4 10             	add    $0x10,%esp
  1014af:	66 89 45 f6          	mov    %ax,-0xa(%ebp)
  1014b3:	ff 75 14             	pushl  0x14(%ebp)
  1014b6:	ff 75 10             	pushl  0x10(%ebp)
  1014b9:	ff 75 0c             	pushl  0xc(%ebp)
  1014bc:	ff 75 08             	pushl  0x8(%ebp)
  1014bf:	e8 d2 03 00 00       	call   101896 <matrix_mul_vect>
  1014c4:	83 c4 10             	add    $0x10,%esp
  1014c7:	0f b7 5d f6          	movzwl -0xa(%ebp),%ebx
  1014cb:	0f bf 45 f4          	movswl -0xc(%ebp),%eax
  1014cf:	83 ec 04             	sub    $0x4,%esp
  1014d2:	50                   	push   %eax
  1014d3:	ff 75 0c             	pushl  0xc(%ebp)
  1014d6:	ff 75 08             	pushl  0x8(%ebp)
  1014d9:	e8 10 02 00 00       	call   1016ee <matrix_sum>
  1014de:	83 c4 10             	add    $0x10,%esp
  1014e1:	98                   	cwtl   
  1014e2:	83 ec 08             	sub    $0x8,%esp
  1014e5:	53                   	push   %ebx
  1014e6:	50                   	push   %eax
  1014e7:	e8 0a f9 ff ff       	call   100df6 <crc16>
  1014ec:	83 c4 10             	add    $0x10,%esp
  1014ef:	66 89 45 f6          	mov    %ax,-0xa(%ebp)
  1014f3:	ff 75 14             	pushl  0x14(%ebp)
  1014f6:	ff 75 10             	pushl  0x10(%ebp)
  1014f9:	ff 75 0c             	pushl  0xc(%ebp)
  1014fc:	ff 75 08             	pushl  0x8(%ebp)
  1014ff:	e8 39 04 00 00       	call   10193d <matrix_mul_matrix>
  101504:	83 c4 10             	add    $0x10,%esp
  101507:	0f b7 5d f6          	movzwl -0xa(%ebp),%ebx
  10150b:	0f bf 45 f4          	movswl -0xc(%ebp),%eax
  10150f:	83 ec 04             	sub    $0x4,%esp
  101512:	50                   	push   %eax
  101513:	ff 75 0c             	pushl  0xc(%ebp)
  101516:	ff 75 08             	pushl  0x8(%ebp)
  101519:	e8 d0 01 00 00       	call   1016ee <matrix_sum>
  10151e:	83 c4 10             	add    $0x10,%esp
  101521:	98                   	cwtl   
  101522:	83 ec 08             	sub    $0x8,%esp
  101525:	53                   	push   %ebx
  101526:	50                   	push   %eax
  101527:	e8 ca f8 ff ff       	call   100df6 <crc16>
  10152c:	83 c4 10             	add    $0x10,%esp
  10152f:	66 89 45 f6          	mov    %ax,-0xa(%ebp)
  101533:	ff 75 14             	pushl  0x14(%ebp)
  101536:	ff 75 10             	pushl  0x10(%ebp)
  101539:	ff 75 0c             	pushl  0xc(%ebp)
  10153c:	ff 75 08             	pushl  0x8(%ebp)
  10153f:	e8 e7 04 00 00       	call   101a2b <matrix_mul_matrix_bitextract>
  101544:	83 c4 10             	add    $0x10,%esp
  101547:	0f b7 5d f6          	movzwl -0xa(%ebp),%ebx
  10154b:	0f bf 45 f4          	movswl -0xc(%ebp),%eax
  10154f:	83 ec 04             	sub    $0x4,%esp
  101552:	50                   	push   %eax
  101553:	ff 75 0c             	pushl  0xc(%ebp)
  101556:	ff 75 08             	pushl  0x8(%ebp)
  101559:	e8 90 01 00 00       	call   1016ee <matrix_sum>
  10155e:	83 c4 10             	add    $0x10,%esp
  101561:	98                   	cwtl   
  101562:	83 ec 08             	sub    $0x8,%esp
  101565:	53                   	push   %ebx
  101566:	50                   	push   %eax
  101567:	e8 8a f8 ff ff       	call   100df6 <crc16>
  10156c:	83 c4 10             	add    $0x10,%esp
  10156f:	66 89 45 f6          	mov    %ax,-0xa(%ebp)
  101573:	8b 45 e4             	mov    -0x1c(%ebp),%eax
  101576:	f7 d8                	neg    %eax
  101578:	98                   	cwtl   
  101579:	83 ec 04             	sub    $0x4,%esp
  10157c:	50                   	push   %eax
  10157d:	ff 75 10             	pushl  0x10(%ebp)
  101580:	ff 75 08             	pushl  0x8(%ebp)
  101583:	e8 9a 02 00 00       	call   101822 <matrix_add_const>
  101588:	83 c4 10             	add    $0x10,%esp
  10158b:	66 8b 45 f6          	mov    -0xa(%ebp),%ax
  10158f:	8b 5d fc             	mov    -0x4(%ebp),%ebx
  101592:	c9                   	leave  
  101593:	c3                   	ret    

00101594 <core_init_matrix>:
  101594:	55                   	push   %ebp
  101595:	89 e5                	mov    %esp,%ebp
  101597:	83 ec 20             	sub    $0x20,%esp
  10159a:	c7 45 f0 00 00 00 00 	movl   $0x0,-0x10(%ebp)
  1015a1:	c7 45 fc 01 00 00 00 	movl   $0x1,-0x4(%ebp)
  1015a8:	c7 45 f8 00 00 00 00 	movl   $0x0,-0x8(%ebp)
  1015af:	c7 45 f4 00 00 00 00 	movl   $0x0,-0xc(%ebp)
  1015b6:	83 7d 10 00          	cmpl   $0x0,0x10(%ebp)
  1015ba:	75 18                	jne    1015d4 <core_init_matrix+0x40>
  1015bc:	c7 45 10 01 00 00 00 	movl   $0x1,0x10(%ebp)
  1015c3:	eb 0f                	jmp    1015d4 <core_init_matrix+0x40>
  1015c5:	ff 45 f8             	incl   -0x8(%ebp)
  1015c8:	8b 45 f8             	mov    -0x8(%ebp),%eax
  1015cb:	0f af c0             	imul   %eax,%eax
  1015ce:	c1 e0 03             	shl    $0x3,%eax
  1015d1:	89 45 f4             	mov    %eax,-0xc(%ebp)
  1015d4:	8b 45 f4             	mov    -0xc(%ebp),%eax
  1015d7:	3b 45 08             	cmp    0x8(%ebp),%eax
  1015da:	72 e9                	jb     1015c5 <core_init_matrix+0x31>
  1015dc:	8b 45 f8             	mov    -0x8(%ebp),%eax
  1015df:	48                   	dec    %eax
  1015e0:	89 45 f0             	mov    %eax,-0x10(%ebp)
  1015e3:	8b 45 0c             	mov    0xc(%ebp),%eax
  1015e6:	48                   	dec    %eax
  1015e7:	83 e0 fc             	and    $0xfffffffc,%eax
  1015ea:	83 c0 04             	add    $0x4,%eax
  1015ed:	89 45 ec             	mov    %eax,-0x14(%ebp)
  1015f0:	8b 45 f0             	mov    -0x10(%ebp),%eax
  1015f3:	0f af c0             	imul   %eax,%eax
  1015f6:	01 c0                	add    %eax,%eax
  1015f8:	89 c2                	mov    %eax,%edx
  1015fa:	8b 45 ec             	mov    -0x14(%ebp),%eax
  1015fd:	01 d0                	add    %edx,%eax
  1015ff:	89 45 e8             	mov    %eax,-0x18(%ebp)
  101602:	c7 45 f8 00 00 00 00 	movl   $0x0,-0x8(%ebp)
  101609:	e9 97 00 00 00       	jmp    1016a5 <core_init_matrix+0x111>
  10160e:	c7 45 f4 00 00 00 00 	movl   $0x0,-0xc(%ebp)
  101615:	eb 7f                	jmp    101696 <core_init_matrix+0x102>
  101617:	8b 45 fc             	mov    -0x4(%ebp),%eax
  10161a:	0f af 45 10          	imul   0x10(%ebp),%eax
  10161e:	25 ff ff 00 80       	and    $0x8000ffff,%eax
  101623:	85 c0                	test   %eax,%eax
  101625:	79 07                	jns    10162e <core_init_matrix+0x9a>
  101627:	48                   	dec    %eax
  101628:	0d 00 00 ff ff       	or     $0xffff0000,%eax
  10162d:	40                   	inc    %eax
  10162e:	89 45 10             	mov    %eax,0x10(%ebp)
  101631:	8b 45 10             	mov    0x10(%ebp),%eax
  101634:	89 c2                	mov    %eax,%edx
  101636:	8b 45 fc             	mov    -0x4(%ebp),%eax
  101639:	01 d0                	add    %edx,%eax
  10163b:	66 89 45 e6          	mov    %ax,-0x1a(%ebp)
  10163f:	8b 45 f8             	mov    -0x8(%ebp),%eax
  101642:	0f af 45 f0          	imul   -0x10(%ebp),%eax
  101646:	89 c2                	mov    %eax,%edx
  101648:	8b 45 f4             	mov    -0xc(%ebp),%eax
  10164b:	01 d0                	add    %edx,%eax
  10164d:	01 c0                	add    %eax,%eax
  10164f:	89 c2                	mov    %eax,%edx
  101651:	8b 45 e8             	mov    -0x18(%ebp),%eax
  101654:	01 c2                	add    %eax,%edx
  101656:	66 8b 45 e6          	mov    -0x1a(%ebp),%ax
  10165a:	66 89 02             	mov    %ax,(%edx)
  10165d:	8b 45 fc             	mov    -0x4(%ebp),%eax
  101660:	89 c2                	mov    %eax,%edx
  101662:	66 8b 45 e6          	mov    -0x1a(%ebp),%ax
  101666:	01 d0                	add    %edx,%eax
  101668:	66 89 45 e6          	mov    %ax,-0x1a(%ebp)
  10166c:	66 81 65 e6 ff 00    	andw   $0xff,-0x1a(%ebp)
  101672:	8b 45 f8             	mov    -0x8(%ebp),%eax
  101675:	0f af 45 f0          	imul   -0x10(%ebp),%eax
  101679:	89 c2                	mov    %eax,%edx
  10167b:	8b 45 f4             	mov    -0xc(%ebp),%eax
  10167e:	01 d0                	add    %edx,%eax
  101680:	01 c0                	add    %eax,%eax
  101682:	89 c2                	mov    %eax,%edx
  101684:	8b 45 ec             	mov    -0x14(%ebp),%eax
  101687:	01 c2                	add    %eax,%edx
  101689:	66 8b 45 e6          	mov    -0x1a(%ebp),%ax
  10168d:	66 89 02             	mov    %ax,(%edx)
  101690:	ff 45 fc             	incl   -0x4(%ebp)
  101693:	ff 45 f4             	incl   -0xc(%ebp)
  101696:	8b 45 f4             	mov    -0xc(%ebp),%eax
  101699:	3b 45 f0             	cmp    -0x10(%ebp),%eax
  10169c:	0f 82 75 ff ff ff    	jb     101617 <core_init_matrix+0x83>
  1016a2:	ff 45 f8             	incl   -0x8(%ebp)
  1016a5:	8b 45 f8             	mov    -0x8(%ebp),%eax
  1016a8:	3b 45 f0             	cmp    -0x10(%ebp),%eax
  1016ab:	0f 82 5d ff ff ff    	jb     10160e <core_init_matrix+0x7a>
  1016b1:	8b 45 14             	mov    0x14(%ebp),%eax
  1016b4:	8b 55 ec             	mov    -0x14(%ebp),%edx
  1016b7:	89 50 04             	mov    %edx,0x4(%eax)
  1016ba:	8b 45 14             	mov    0x14(%ebp),%eax
  1016bd:	8b 55 e8             	mov    -0x18(%ebp),%edx
  1016c0:	89 50 08             	mov    %edx,0x8(%eax)
  1016c3:	8b 45 f0             	mov    -0x10(%ebp),%eax
  1016c6:	0f af c0             	imul   %eax,%eax
  1016c9:	01 c0                	add    %eax,%eax
  1016cb:	89 c2                	mov    %eax,%edx
  1016cd:	8b 45 e8             	mov    -0x18(%ebp),%eax
  1016d0:	01 d0                	add    %edx,%eax
  1016d2:	48                   	dec    %eax
  1016d3:	83 e0 fc             	and    $0xfffffffc,%eax
  1016d6:	83 c0 04             	add    $0x4,%eax
  1016d9:	89 c2                	mov    %eax,%edx
  1016db:	8b 45 14             	mov    0x14(%ebp),%eax
  1016de:	89 50 0c             	mov    %edx,0xc(%eax)
  1016e1:	8b 55 f0             	mov    -0x10(%ebp),%edx
  1016e4:	8b 45 14             	mov    0x14(%ebp),%eax
  1016e7:	89 10                	mov    %edx,(%eax)
  1016e9:	8b 45 f0             	mov    -0x10(%ebp),%eax
  1016ec:	c9                   	leave  
  1016ed:	c3                   	ret    

001016ee <matrix_sum>:
  1016ee:	55                   	push   %ebp
  1016ef:	89 e5                	mov    %esp,%ebp
  1016f1:	83 ec 24             	sub    $0x24,%esp
  1016f4:	8b 45 10             	mov    0x10(%ebp),%eax
  1016f7:	66 89 45 dc          	mov    %ax,-0x24(%ebp)
  1016fb:	c7 45 fc 00 00 00 00 	movl   $0x0,-0x4(%ebp)
  101702:	c7 45 f8 00 00 00 00 	movl   $0x0,-0x8(%ebp)
  101709:	c7 45 e8 00 00 00 00 	movl   $0x0,-0x18(%ebp)
  101710:	66 c7 45 f6 00 00    	movw   $0x0,-0xa(%ebp)
  101716:	c7 45 f0 00 00 00 00 	movl   $0x0,-0x10(%ebp)
  10171d:	eb 75                	jmp    101794 <matrix_sum+0xa6>
  10171f:	c7 45 ec 00 00 00 00 	movl   $0x0,-0x14(%ebp)
  101726:	eb 61                	jmp    101789 <matrix_sum+0x9b>
  101728:	8b 45 f0             	mov    -0x10(%ebp),%eax
  10172b:	0f af 45 08          	imul   0x8(%ebp),%eax
  10172f:	89 c2                	mov    %eax,%edx
  101731:	8b 45 ec             	mov    -0x14(%ebp),%eax
  101734:	01 d0                	add    %edx,%eax
  101736:	8d 14 85 00 00 00 00 	lea    0x0(,%eax,4),%edx
  10173d:	8b 45 0c             	mov    0xc(%ebp),%eax
  101740:	01 d0                	add    %edx,%eax
  101742:	8b 00                	mov    (%eax),%eax
  101744:	89 45 e8             	mov    %eax,-0x18(%ebp)
  101747:	8b 45 e8             	mov    -0x18(%ebp),%eax
  10174a:	01 45 fc             	add    %eax,-0x4(%ebp)
  10174d:	0f bf 45 dc          	movswl -0x24(%ebp),%eax
  101751:	39 45 fc             	cmp    %eax,-0x4(%ebp)
  101754:	7e 14                	jle    10176a <matrix_sum+0x7c>
  101756:	66 8b 45 f6          	mov    -0xa(%ebp),%ax
  10175a:	83 c0 0a             	add    $0xa,%eax
  10175d:	66 89 45 f6          	mov    %ax,-0xa(%ebp)
  101761:	c7 45 fc 00 00 00 00 	movl   $0x0,-0x4(%ebp)
  101768:	eb 16                	jmp    101780 <matrix_sum+0x92>
  10176a:	8b 45 e8             	mov    -0x18(%ebp),%eax
  10176d:	3b 45 f8             	cmp    -0x8(%ebp),%eax
  101770:	0f 9f c0             	setg   %al
  101773:	0f b6 d0             	movzbl %al,%edx
  101776:	66 8b 45 f6          	mov    -0xa(%ebp),%ax
  10177a:	01 d0                	add    %edx,%eax
  10177c:	66 89 45 f6          	mov    %ax,-0xa(%ebp)
  101780:	8b 45 e8             	mov    -0x18(%ebp),%eax
  101783:	89 45 f8             	mov    %eax,-0x8(%ebp)
  101786:	ff 45 ec             	incl   -0x14(%ebp)
  101789:	8b 45 ec             	mov    -0x14(%ebp),%eax
  10178c:	3b 45 08             	cmp    0x8(%ebp),%eax
  10178f:	72 97                	jb     101728 <matrix_sum+0x3a>
  101791:	ff 45 f0             	incl   -0x10(%ebp)
  101794:	8b 45 f0             	mov    -0x10(%ebp),%eax
  101797:	3b 45 08             	cmp    0x8(%ebp),%eax
  10179a:	72 83                	jb     10171f <matrix_sum+0x31>
  10179c:	66 8b 45 f6          	mov    -0xa(%ebp),%ax
  1017a0:	c9                   	leave  
  1017a1:	c3                   	ret    

001017a2 <matrix_mul_const>:
  1017a2:	55                   	push   %ebp
  1017a3:	89 e5                	mov    %esp,%ebp
  1017a5:	53                   	push   %ebx
  1017a6:	83 ec 14             	sub    $0x14,%esp
  1017a9:	8b 45 14             	mov    0x14(%ebp),%eax
  1017ac:	66 89 45 e8          	mov    %ax,-0x18(%ebp)
  1017b0:	c7 45 f8 00 00 00 00 	movl   $0x0,-0x8(%ebp)
  1017b7:	eb 59                	jmp    101812 <matrix_mul_const+0x70>
  1017b9:	c7 45 f4 00 00 00 00 	movl   $0x0,-0xc(%ebp)
  1017c0:	eb 45                	jmp    101807 <matrix_mul_const+0x65>
  1017c2:	8b 45 f8             	mov    -0x8(%ebp),%eax
  1017c5:	0f af 45 08          	imul   0x8(%ebp),%eax
  1017c9:	89 c2                	mov    %eax,%edx
  1017cb:	8b 45 f4             	mov    -0xc(%ebp),%eax
  1017ce:	01 d0                	add    %edx,%eax
  1017d0:	01 c0                	add    %eax,%eax
  1017d2:	89 c2                	mov    %eax,%edx
  1017d4:	8b 45 10             	mov    0x10(%ebp),%eax
  1017d7:	01 d0                	add    %edx,%eax
  1017d9:	66 8b 00             	mov    (%eax),%ax
  1017dc:	0f bf d8             	movswl %ax,%ebx
  1017df:	0f bf 4d e8          	movswl -0x18(%ebp),%ecx
  1017e3:	8b 45 f8             	mov    -0x8(%ebp),%eax
  1017e6:	0f af 45 08          	imul   0x8(%ebp),%eax
  1017ea:	89 c2                	mov    %eax,%edx
  1017ec:	8b 45 f4             	mov    -0xc(%ebp),%eax
  1017ef:	01 d0                	add    %edx,%eax
  1017f1:	8d 14 85 00 00 00 00 	lea    0x0(,%eax,4),%edx
  1017f8:	8b 45 0c             	mov    0xc(%ebp),%eax
  1017fb:	01 c2                	add    %eax,%edx
  1017fd:	89 d8                	mov    %ebx,%eax
  1017ff:	0f af c1             	imul   %ecx,%eax
  101802:	89 02                	mov    %eax,(%edx)
  101804:	ff 45 f4             	incl   -0xc(%ebp)
  101807:	8b 45 f4             	mov    -0xc(%ebp),%eax
  10180a:	3b 45 08             	cmp    0x8(%ebp),%eax
  10180d:	72 b3                	jb     1017c2 <matrix_mul_const+0x20>
  10180f:	ff 45 f8             	incl   -0x8(%ebp)
  101812:	8b 45 f8             	mov    -0x8(%ebp),%eax
  101815:	3b 45 08             	cmp    0x8(%ebp),%eax
  101818:	72 9f                	jb     1017b9 <matrix_mul_const+0x17>
  10181a:	90                   	nop
  10181b:	90                   	nop
  10181c:	83 c4 14             	add    $0x14,%esp
  10181f:	5b                   	pop    %ebx
  101820:	5d                   	pop    %ebp
  101821:	c3                   	ret    

00101822 <matrix_add_const>:
  101822:	55                   	push   %ebp
  101823:	89 e5                	mov    %esp,%ebp
  101825:	83 ec 14             	sub    $0x14,%esp
  101828:	8b 45 10             	mov    0x10(%ebp),%eax
  10182b:	66 89 45 ec          	mov    %ax,-0x14(%ebp)
  10182f:	c7 45 fc 00 00 00 00 	movl   $0x0,-0x4(%ebp)
  101836:	eb 52                	jmp    10188a <matrix_add_const+0x68>
  101838:	c7 45 f8 00 00 00 00 	movl   $0x0,-0x8(%ebp)
  10183f:	eb 3e                	jmp    10187f <matrix_add_const+0x5d>
  101841:	8b 45 fc             	mov    -0x4(%ebp),%eax
  101844:	0f af 45 08          	imul   0x8(%ebp),%eax
  101848:	89 c2                	mov    %eax,%edx
  10184a:	8b 45 f8             	mov    -0x8(%ebp),%eax
  10184d:	01 d0                	add    %edx,%eax
  10184f:	01 c0                	add    %eax,%eax
  101851:	89 c2                	mov    %eax,%edx
  101853:	8b 45 0c             	mov    0xc(%ebp),%eax
  101856:	01 d0                	add    %edx,%eax
  101858:	66 8b 00             	mov    (%eax),%ax
  10185b:	89 c2                	mov    %eax,%edx
  10185d:	8b 45 ec             	mov    -0x14(%ebp),%eax
  101860:	01 d0                	add    %edx,%eax
  101862:	8b 55 fc             	mov    -0x4(%ebp),%edx
  101865:	89 d1                	mov    %edx,%ecx
  101867:	0f af 4d 08          	imul   0x8(%ebp),%ecx
  10186b:	8b 55 f8             	mov    -0x8(%ebp),%edx
  10186e:	01 ca                	add    %ecx,%edx
  101870:	01 d2                	add    %edx,%edx
  101872:	89 d1                	mov    %edx,%ecx
  101874:	8b 55 0c             	mov    0xc(%ebp),%edx
  101877:	01 ca                	add    %ecx,%edx
  101879:	66 89 02             	mov    %ax,(%edx)
  10187c:	ff 45 f8             	incl   -0x8(%ebp)
  10187f:	8b 45 f8             	mov    -0x8(%ebp),%eax
  101882:	3b 45 08             	cmp    0x8(%ebp),%eax
  101885:	72 ba                	jb     101841 <matrix_add_const+0x1f>
  101887:	ff 45 fc             	incl   -0x4(%ebp)
  10188a:	8b 45 fc             	mov    -0x4(%ebp),%eax
  10188d:	3b 45 08             	cmp    0x8(%ebp),%eax
  101890:	72 a6                	jb     101838 <matrix_add_const+0x16>
  101892:	90                   	nop
  101893:	90                   	nop
  101894:	c9                   	leave  
  101895:	c3                   	ret    

00101896 <matrix_mul_vect>:
  101896:	55                   	push   %ebp
  101897:	89 e5                	mov    %esp,%ebp
  101899:	53                   	push   %ebx
  10189a:	83 ec 10             	sub    $0x10,%esp
  10189d:	c7 45 f8 00 00 00 00 	movl   $0x0,-0x8(%ebp)
  1018a4:	e9 80 00 00 00       	jmp    101929 <matrix_mul_vect+0x93>
  1018a9:	8b 45 f8             	mov    -0x8(%ebp),%eax
  1018ac:	8d 14 85 00 00 00 00 	lea    0x0(,%eax,4),%edx
  1018b3:	8b 45 0c             	mov    0xc(%ebp),%eax
  1018b6:	01 d0                	add    %edx,%eax
  1018b8:	c7 00 00 00 00 00    	movl   $0x0,(%eax)
  1018be:	c7 45 f4 00 00 00 00 	movl   $0x0,-0xc(%ebp)
  1018c5:	eb 57                	jmp    10191e <matrix_mul_vect+0x88>
  1018c7:	8b 45 f8             	mov    -0x8(%ebp),%eax
  1018ca:	8d 14 85 00 00 00 00 	lea    0x0(,%eax,4),%edx
  1018d1:	8b 45 0c             	mov    0xc(%ebp),%eax
  1018d4:	01 d0                	add    %edx,%eax
  1018d6:	8b 08                	mov    (%eax),%ecx
  1018d8:	8b 45 f8             	mov    -0x8(%ebp),%eax
  1018db:	0f af 45 08          	imul   0x8(%ebp),%eax
  1018df:	89 c2                	mov    %eax,%edx
  1018e1:	8b 45 f4             	mov    -0xc(%ebp),%eax
  1018e4:	01 d0                	add    %edx,%eax
  1018e6:	01 c0                	add    %eax,%eax
  1018e8:	89 c2                	mov    %eax,%edx
  1018ea:	8b 45 10             	mov    0x10(%ebp),%eax
  1018ed:	01 d0                	add    %edx,%eax
  1018ef:	66 8b 00             	mov    (%eax),%ax
  1018f2:	0f bf d0             	movswl %ax,%edx
  1018f5:	8b 45 f4             	mov    -0xc(%ebp),%eax
  1018f8:	01 c0                	add    %eax,%eax
  1018fa:	89 c3                	mov    %eax,%ebx
  1018fc:	8b 45 14             	mov    0x14(%ebp),%eax
  1018ff:	01 d8                	add    %ebx,%eax
  101901:	66 8b 00             	mov    (%eax),%ax
  101904:	98                   	cwtl   
  101905:	0f af d0             	imul   %eax,%edx
  101908:	8b 45 f8             	mov    -0x8(%ebp),%eax
  10190b:	8d 1c 85 00 00 00 00 	lea    0x0(,%eax,4),%ebx
  101912:	8b 45 0c             	mov    0xc(%ebp),%eax
  101915:	01 d8                	add    %ebx,%eax
  101917:	01 ca                	add    %ecx,%edx
  101919:	89 10                	mov    %edx,(%eax)
  10191b:	ff 45 f4             	incl   -0xc(%ebp)
  10191e:	8b 45 f4             	mov    -0xc(%ebp),%eax
  101921:	3b 45 08             	cmp    0x8(%ebp),%eax
  101924:	72 a1                	jb     1018c7 <matrix_mul_vect+0x31>
  101926:	ff 45 f8             	incl   -0x8(%ebp)
  101929:	8b 45 f8             	mov    -0x8(%ebp),%eax
  10192c:	3b 45 08             	cmp    0x8(%ebp),%eax
  10192f:	0f 82 74 ff ff ff    	jb     1018a9 <matrix_mul_vect+0x13>
  101935:	90                   	nop
  101936:	90                   	nop
  101937:	83 c4 10             	add    $0x10,%esp
  10193a:	5b                   	pop    %ebx
  10193b:	5d                   	pop    %ebp
  10193c:	c3                   	ret    

0010193d <matrix_mul_matrix>:
  10193d:	55                   	push   %ebp
  10193e:	89 e5                	mov    %esp,%ebp
  101940:	53                   	push   %ebx
  101941:	83 ec 10             	sub    $0x10,%esp
  101944:	c7 45 f8 00 00 00 00 	movl   $0x0,-0x8(%ebp)
  10194b:	e9 c7 00 00 00       	jmp    101a17 <matrix_mul_matrix+0xda>
  101950:	c7 45 f4 00 00 00 00 	movl   $0x0,-0xc(%ebp)
  101957:	e9 ac 00 00 00       	jmp    101a08 <matrix_mul_matrix+0xcb>
  10195c:	8b 45 f8             	mov    -0x8(%ebp),%eax
  10195f:	0f af 45 08          	imul   0x8(%ebp),%eax
  101963:	89 c2                	mov    %eax,%edx
  101965:	8b 45 f4             	mov    -0xc(%ebp),%eax
  101968:	01 d0                	add    %edx,%eax
  10196a:	8d 14 85 00 00 00 00 	lea    0x0(,%eax,4),%edx
  101971:	8b 45 0c             	mov    0xc(%ebp),%eax
  101974:	01 d0                	add    %edx,%eax
  101976:	c7 00 00 00 00 00    	movl   $0x0,(%eax)
  10197c:	c7 45 f0 00 00 00 00 	movl   $0x0,-0x10(%ebp)
  101983:	eb 78                	jmp    1019fd <matrix_mul_matrix+0xc0>
  101985:	8b 45 f8             	mov    -0x8(%ebp),%eax
  101988:	0f af 45 08          	imul   0x8(%ebp),%eax
  10198c:	89 c2                	mov    %eax,%edx
  10198e:	8b 45 f4             	mov    -0xc(%ebp),%eax
  101991:	01 d0                	add    %edx,%eax
  101993:	8d 14 85 00 00 00 00 	lea    0x0(,%eax,4),%edx
  10199a:	8b 45 0c             	mov    0xc(%ebp),%eax
  10199d:	01 d0                	add    %edx,%eax
  10199f:	8b 08                	mov    (%eax),%ecx
  1019a1:	8b 45 f8             	mov    -0x8(%ebp),%eax
  1019a4:	0f af 45 08          	imul   0x8(%ebp),%eax
  1019a8:	89 c2                	mov    %eax,%edx
  1019aa:	8b 45 f0             	mov    -0x10(%ebp),%eax
  1019ad:	01 d0                	add    %edx,%eax
  1019af:	01 c0                	add    %eax,%eax
  1019b1:	89 c2                	mov    %eax,%edx
  1019b3:	8b 45 10             	mov    0x10(%ebp),%eax
  1019b6:	01 d0                	add    %edx,%eax
  1019b8:	66 8b 00             	mov    (%eax),%ax
  1019bb:	0f bf d0             	movswl %ax,%edx
  1019be:	8b 45 f0             	mov    -0x10(%ebp),%eax
  1019c1:	0f af 45 08          	imul   0x8(%ebp),%eax
  1019c5:	89 c3                	mov    %eax,%ebx
  1019c7:	8b 45 f4             	mov    -0xc(%ebp),%eax
  1019ca:	01 d8                	add    %ebx,%eax
  1019cc:	01 c0                	add    %eax,%eax
  1019ce:	89 c3                	mov    %eax,%ebx
  1019d0:	8b 45 14             	mov    0x14(%ebp),%eax
  1019d3:	01 d8                	add    %ebx,%eax
  1019d5:	66 8b 00             	mov    (%eax),%ax
  1019d8:	98                   	cwtl   
  1019d9:	0f af d0             	imul   %eax,%edx
  1019dc:	8b 45 f8             	mov    -0x8(%ebp),%eax
  1019df:	0f af 45 08          	imul   0x8(%ebp),%eax
  1019e3:	89 c3                	mov    %eax,%ebx
  1019e5:	8b 45 f4             	mov    -0xc(%ebp),%eax
  1019e8:	01 d8                	add    %ebx,%eax
  1019ea:	8d 1c 85 00 00 00 00 	lea    0x0(,%eax,4),%ebx
  1019f1:	8b 45 0c             	mov    0xc(%ebp),%eax
  1019f4:	01 d8                	add    %ebx,%eax
  1019f6:	01 ca                	add    %ecx,%edx
  1019f8:	89 10                	mov    %edx,(%eax)
  1019fa:	ff 45 f0             	incl   -0x10(%ebp)
  1019fd:	8b 45 f0             	mov    -0x10(%ebp),%eax
  101a00:	3b 45 08             	cmp    0x8(%ebp),%eax
  101a03:	72 80                	jb     101985 <matrix_mul_matrix+0x48>
  101a05:	ff 45 f4             	incl   -0xc(%ebp)
  101a08:	8b 45 f4             	mov    -0xc(%ebp),%eax
  101a0b:	3b 45 08             	cmp    0x8(%ebp),%eax
  101a0e:	0f 82 48 ff ff ff    	jb     10195c <matrix_mul_matrix+0x1f>
  101a14:	ff 45 f8             	incl   -0x8(%ebp)
  101a17:	8b 45 f8             	mov    -0x8(%ebp),%eax
  101a1a:	3b 45 08             	cmp    0x8(%ebp),%eax
  101a1d:	0f 82 2d ff ff ff    	jb     101950 <matrix_mul_matrix+0x13>
  101a23:	90                   	nop
  101a24:	90                   	nop
  101a25:	83 c4 10             	add    $0x10,%esp
  101a28:	5b                   	pop    %ebx
  101a29:	5d                   	pop    %ebp
  101a2a:	c3                   	ret    

00101a2b <matrix_mul_matrix_bitextract>:
  101a2b:	55                   	push   %ebp
  101a2c:	89 e5                	mov    %esp,%ebp
  101a2e:	83 ec 10             	sub    $0x10,%esp
  101a31:	c7 45 fc 00 00 00 00 	movl   $0x0,-0x4(%ebp)
  101a38:	e9 ed 00 00 00       	jmp    101b2a <matrix_mul_matrix_bitextract+0xff>
  101a3d:	c7 45 f8 00 00 00 00 	movl   $0x0,-0x8(%ebp)
  101a44:	e9 d2 00 00 00       	jmp    101b1b <matrix_mul_matrix_bitextract+0xf0>
  101a49:	8b 45 fc             	mov    -0x4(%ebp),%eax
  101a4c:	0f af 45 08          	imul   0x8(%ebp),%eax
  101a50:	89 c2                	mov    %eax,%edx
  101a52:	8b 45 f8             	mov    -0x8(%ebp),%eax
  101a55:	01 d0                	add    %edx,%eax
  101a57:	8d 14 85 00 00 00 00 	lea    0x0(,%eax,4),%edx
  101a5e:	8b 45 0c             	mov    0xc(%ebp),%eax
  101a61:	01 d0                	add    %edx,%eax
  101a63:	c7 00 00 00 00 00    	movl   $0x0,(%eax)
  101a69:	c7 45 f4 00 00 00 00 	movl   $0x0,-0xc(%ebp)
  101a70:	e9 97 00 00 00       	jmp    101b0c <matrix_mul_matrix_bitextract+0xe1>
  101a75:	8b 45 fc             	mov    -0x4(%ebp),%eax
  101a78:	0f af 45 08          	imul   0x8(%ebp),%eax
  101a7c:	89 c2                	mov    %eax,%edx
  101a7e:	8b 45 f4             	mov    -0xc(%ebp),%eax
  101a81:	01 d0                	add    %edx,%eax
  101a83:	01 c0                	add    %eax,%eax
  101a85:	89 c2                	mov    %eax,%edx
  101a87:	8b 45 10             	mov    0x10(%ebp),%eax
  101a8a:	01 d0                	add    %edx,%eax
  101a8c:	66 8b 00             	mov    (%eax),%ax
  101a8f:	0f bf d0             	movswl %ax,%edx
  101a92:	8b 45 f4             	mov    -0xc(%ebp),%eax
  101a95:	0f af 45 08          	imul   0x8(%ebp),%eax
  101a99:	89 c1                	mov    %eax,%ecx
  101a9b:	8b 45 f8             	mov    -0x8(%ebp),%eax
  101a9e:	01 c8                	add    %ecx,%eax
  101aa0:	01 c0                	add    %eax,%eax
  101aa2:	89 c1                	mov    %eax,%ecx
  101aa4:	8b 45 14             	mov    0x14(%ebp),%eax
  101aa7:	01 c8                	add    %ecx,%eax
  101aa9:	66 8b 00             	mov    (%eax),%ax
  101aac:	98                   	cwtl   
  101aad:	0f af c2             	imul   %edx,%eax
  101ab0:	89 45 f0             	mov    %eax,-0x10(%ebp)
  101ab3:	8b 45 fc             	mov    -0x4(%ebp),%eax
  101ab6:	0f af 45 08          	imul   0x8(%ebp),%eax
  101aba:	89 c2                	mov    %eax,%edx
  101abc:	8b 45 f8             	mov    -0x8(%ebp),%eax
  101abf:	01 d0                	add    %edx,%eax
  101ac1:	8d 14 85 00 00 00 00 	lea    0x0(,%eax,4),%edx
  101ac8:	8b 45 0c             	mov    0xc(%ebp),%eax
  101acb:	01 d0                	add    %edx,%eax
  101acd:	8b 00                	mov    (%eax),%eax
  101acf:	89 c2                	mov    %eax,%edx
  101ad1:	8b 45 f0             	mov    -0x10(%ebp),%eax
  101ad4:	c1 f8 02             	sar    $0x2,%eax
  101ad7:	83 e0 0f             	and    $0xf,%eax
  101ada:	89 c1                	mov    %eax,%ecx
  101adc:	8b 45 f0             	mov    -0x10(%ebp),%eax
  101adf:	c1 f8 05             	sar    $0x5,%eax
  101ae2:	83 e0 7f             	and    $0x7f,%eax
  101ae5:	0f af c1             	imul   %ecx,%eax
  101ae8:	8d 0c 02             	lea    (%edx,%eax,1),%ecx
  101aeb:	8b 45 fc             	mov    -0x4(%ebp),%eax
  101aee:	0f af 45 08          	imul   0x8(%ebp),%eax
  101af2:	89 c2                	mov    %eax,%edx
  101af4:	8b 45 f8             	mov    -0x8(%ebp),%eax
  101af7:	01 d0                	add    %edx,%eax
  101af9:	8d 14 85 00 00 00 00 	lea    0x0(,%eax,4),%edx
  101b00:	8b 45 0c             	mov    0xc(%ebp),%eax
  101b03:	01 d0                	add    %edx,%eax
  101b05:	89 ca                	mov    %ecx,%edx
  101b07:	89 10                	mov    %edx,(%eax)
  101b09:	ff 45 f4             	incl   -0xc(%ebp)
  101b0c:	8b 45 f4             	mov    -0xc(%ebp),%eax
  101b0f:	3b 45 08             	cmp    0x8(%ebp),%eax
  101b12:	0f 82 5d ff ff ff    	jb     101a75 <matrix_mul_matrix_bitextract+0x4a>
  101b18:	ff 45 f8             	incl   -0x8(%ebp)
  101b1b:	8b 45 f8             	mov    -0x8(%ebp),%eax
  101b1e:	3b 45 08             	cmp    0x8(%ebp),%eax
  101b21:	0f 82 22 ff ff ff    	jb     101a49 <matrix_mul_matrix_bitextract+0x1e>
  101b27:	ff 45 fc             	incl   -0x4(%ebp)
  101b2a:	8b 45 fc             	mov    -0x4(%ebp),%eax
  101b2d:	3b 45 08             	cmp    0x8(%ebp),%eax
  101b30:	0f 82 07 ff ff ff    	jb     101a3d <matrix_mul_matrix_bitextract+0x12>
  101b36:	90                   	nop
  101b37:	90                   	nop
  101b38:	c9                   	leave  
  101b39:	c3                   	ret    

00101b3a <calc_func>:
  101b3a:	55                   	push   %ebp
  101b3b:	89 e5                	mov    %esp,%ebp
  101b3d:	57                   	push   %edi
  101b3e:	56                   	push   %esi
  101b3f:	53                   	push   %ebx
  101b40:	83 ec 1c             	sub    $0x1c,%esp
  101b43:	8b 45 08             	mov    0x8(%ebp),%eax
  101b46:	66 8b 00             	mov    (%eax),%ax
  101b49:	66 89 45 e2          	mov    %ax,-0x1e(%ebp)
  101b4d:	66 8b 45 e2          	mov    -0x1e(%ebp),%ax
  101b51:	66 c1 f8 07          	sar    $0x7,%ax
  101b55:	83 e0 01             	and    $0x1,%eax
  101b58:	88 45 e1             	mov    %al,-0x1f(%ebp)
  101b5b:	80 7d e1 00          	cmpb   $0x0,-0x1f(%ebp)
  101b5f:	74 0c                	je     101b6d <calc_func+0x33>
  101b61:	66 8b 45 e2          	mov    -0x1e(%ebp),%ax
  101b65:	83 e0 7f             	and    $0x7f,%eax
  101b68:	e9 27 01 00 00       	jmp    101c94 <calc_func+0x15a>
  101b6d:	66 8b 45 e2          	mov    -0x1e(%ebp),%ax
  101b71:	83 e0 07             	and    $0x7,%eax
  101b74:	66 89 45 de          	mov    %ax,-0x22(%ebp)
  101b78:	66 8b 45 e2          	mov    -0x1e(%ebp),%ax
  101b7c:	66 c1 f8 03          	sar    $0x3,%ax
  101b80:	83 e0 0f             	and    $0xf,%eax
  101b83:	66 89 45 e4          	mov    %ax,-0x1c(%ebp)
  101b87:	0f bf 45 e4          	movswl -0x1c(%ebp),%eax
  101b8b:	c1 e0 04             	shl    $0x4,%eax
  101b8e:	66 09 45 e4          	or     %ax,-0x1c(%ebp)
  101b92:	0f bf 45 de          	movswl -0x22(%ebp),%eax
  101b96:	85 c0                	test   %eax,%eax
  101b98:	74 0a                	je     101ba4 <calc_func+0x6a>
  101b9a:	83 f8 01             	cmp    $0x1,%eax
  101b9d:	74 6b                	je     101c0a <calc_func+0xd0>
  101b9f:	e9 a3 00 00 00       	jmp    101c47 <calc_func+0x10d>
  101ba4:	66 83 7d e4 21       	cmpw   $0x21,-0x1c(%ebp)
  101ba9:	7f 06                	jg     101bb1 <calc_func+0x77>
  101bab:	66 c7 45 e4 22 00    	movw   $0x22,-0x1c(%ebp)
  101bb1:	8b 45 0c             	mov    0xc(%ebp),%eax
  101bb4:	8b 40 38             	mov    0x38(%eax),%eax
  101bb7:	0f b7 f8             	movzwl %ax,%edi
  101bba:	0f bf 75 e4          	movswl -0x1c(%ebp),%esi
  101bbe:	8b 45 0c             	mov    0xc(%ebp),%eax
  101bc1:	66 8b 40 02          	mov    0x2(%eax),%ax
  101bc5:	0f bf d8             	movswl %ax,%ebx
  101bc8:	8b 45 0c             	mov    0xc(%ebp),%eax
  101bcb:	8b 00                	mov    (%eax),%eax
  101bcd:	0f bf c8             	movswl %ax,%ecx
  101bd0:	8b 45 0c             	mov    0xc(%ebp),%eax
  101bd3:	8b 50 14             	mov    0x14(%eax),%edx
  101bd6:	8b 45 0c             	mov    0xc(%ebp),%eax
  101bd9:	8b 40 18             	mov    0x18(%eax),%eax
  101bdc:	83 ec 08             	sub    $0x8,%esp
  101bdf:	57                   	push   %edi
  101be0:	56                   	push   %esi
  101be1:	53                   	push   %ebx
  101be2:	51                   	push   %ecx
  101be3:	52                   	push   %edx
  101be4:	50                   	push   %eax
  101be5:	e8 5b f2 ff ff       	call   100e45 <core_bench_state>
  101bea:	83 c4 20             	add    $0x20,%esp
  101bed:	66 89 45 e6          	mov    %ax,-0x1a(%ebp)
  101bf1:	8b 45 0c             	mov    0xc(%ebp),%eax
  101bf4:	66 8b 40 3e          	mov    0x3e(%eax),%ax
  101bf8:	66 85 c0             	test   %ax,%ax
  101bfb:	75 54                	jne    101c51 <calc_func+0x117>
  101bfd:	66 8b 45 e6          	mov    -0x1a(%ebp),%ax
  101c01:	8b 55 0c             	mov    0xc(%ebp),%edx
  101c04:	66 89 42 3e          	mov    %ax,0x3e(%edx)
  101c08:	eb 47                	jmp    101c51 <calc_func+0x117>
  101c0a:	8b 45 0c             	mov    0xc(%ebp),%eax
  101c0d:	8b 40 38             	mov    0x38(%eax),%eax
  101c10:	0f b7 d0             	movzwl %ax,%edx
  101c13:	0f bf 45 e4          	movswl -0x1c(%ebp),%eax
  101c17:	8b 4d 0c             	mov    0xc(%ebp),%ecx
  101c1a:	83 c1 28             	add    $0x28,%ecx
  101c1d:	83 ec 04             	sub    $0x4,%esp
  101c20:	52                   	push   %edx
  101c21:	50                   	push   %eax
  101c22:	51                   	push   %ecx
  101c23:	e8 9a f7 ff ff       	call   1013c2 <core_bench_matrix>
  101c28:	83 c4 10             	add    $0x10,%esp
  101c2b:	66 89 45 e6          	mov    %ax,-0x1a(%ebp)
  101c2f:	8b 45 0c             	mov    0xc(%ebp),%eax
  101c32:	8b 40 3c             	mov    0x3c(%eax),%eax
  101c35:	66 85 c0             	test   %ax,%ax
  101c38:	75 1a                	jne    101c54 <calc_func+0x11a>
  101c3a:	66 8b 45 e6          	mov    -0x1a(%ebp),%ax
  101c3e:	8b 55 0c             	mov    0xc(%ebp),%edx
  101c41:	66 89 42 3c          	mov    %ax,0x3c(%edx)
  101c45:	eb 0d                	jmp    101c54 <calc_func+0x11a>
  101c47:	66 8b 45 e2          	mov    -0x1e(%ebp),%ax
  101c4b:	66 89 45 e6          	mov    %ax,-0x1a(%ebp)
  101c4f:	eb 04                	jmp    101c55 <calc_func+0x11b>
  101c51:	90                   	nop
  101c52:	eb 01                	jmp    101c55 <calc_func+0x11b>
  101c54:	90                   	nop
  101c55:	8b 45 0c             	mov    0xc(%ebp),%eax
  101c58:	8b 40 38             	mov    0x38(%eax),%eax
  101c5b:	0f b7 d0             	movzwl %ax,%edx
  101c5e:	66 8b 45 e6          	mov    -0x1a(%ebp),%ax
  101c62:	0f b7 c0             	movzwl %ax,%eax
  101c65:	83 ec 08             	sub    $0x8,%esp
  101c68:	52                   	push   %edx
  101c69:	50                   	push   %eax
  101c6a:	e8 f3 f0 ff ff       	call   100d62 <crcu16>
  101c6f:	83 c4 10             	add    $0x10,%esp
  101c72:	8b 55 0c             	mov    0xc(%ebp),%edx
  101c75:	66 89 42 38          	mov    %ax,0x38(%edx)
  101c79:	66 83 65 e6 7f       	andw   $0x7f,-0x1a(%ebp)
  101c7e:	66 8b 45 e2          	mov    -0x1e(%ebp),%ax
  101c82:	b0 00                	mov    $0x0,%al
  101c84:	0c 80                	or     $0x80,%al
  101c86:	66 0b 45 e6          	or     -0x1a(%ebp),%ax
  101c8a:	8b 55 08             	mov    0x8(%ebp),%edx
  101c8d:	66 89 02             	mov    %ax,(%edx)
  101c90:	66 8b 45 e6          	mov    -0x1a(%ebp),%ax
  101c94:	8d 65 f4             	lea    -0xc(%ebp),%esp
  101c97:	5b                   	pop    %ebx
  101c98:	5e                   	pop    %esi
  101c99:	5f                   	pop    %edi
  101c9a:	5d                   	pop    %ebp
  101c9b:	c3                   	ret    

00101c9c <cmp_complex>:
  101c9c:	55                   	push   %ebp
  101c9d:	89 e5                	mov    %esp,%ebp
  101c9f:	83 ec 18             	sub    $0x18,%esp
  101ca2:	8b 45 08             	mov    0x8(%ebp),%eax
  101ca5:	83 ec 08             	sub    $0x8,%esp
  101ca8:	ff 75 10             	pushl  0x10(%ebp)
  101cab:	50                   	push   %eax
  101cac:	e8 89 fe ff ff       	call   101b3a <calc_func>
  101cb1:	83 c4 10             	add    $0x10,%esp
  101cb4:	66 89 45 f6          	mov    %ax,-0xa(%ebp)
  101cb8:	8b 45 0c             	mov    0xc(%ebp),%eax
  101cbb:	83 ec 08             	sub    $0x8,%esp
  101cbe:	ff 75 10             	pushl  0x10(%ebp)
  101cc1:	50                   	push   %eax
  101cc2:	e8 73 fe ff ff       	call   101b3a <calc_func>
  101cc7:	83 c4 10             	add    $0x10,%esp
  101cca:	66 89 45 f4          	mov    %ax,-0xc(%ebp)
  101cce:	0f bf 55 f6          	movswl -0xa(%ebp),%edx
  101cd2:	0f bf 45 f4          	movswl -0xc(%ebp),%eax
  101cd6:	29 c2                	sub    %eax,%edx
  101cd8:	89 d0                	mov    %edx,%eax
  101cda:	c9                   	leave  
  101cdb:	c3                   	ret    

00101cdc <cmp_idx>:
  101cdc:	55                   	push   %ebp
  101cdd:	89 e5                	mov    %esp,%ebp
  101cdf:	83 7d 10 00          	cmpl   $0x0,0x10(%ebp)
  101ce3:	75 38                	jne    101d1d <cmp_idx+0x41>
  101ce5:	8b 45 08             	mov    0x8(%ebp),%eax
  101ce8:	66 8b 00             	mov    (%eax),%ax
  101ceb:	b0 00                	mov    $0x0,%al
  101ced:	89 c2                	mov    %eax,%edx
  101cef:	8b 45 08             	mov    0x8(%ebp),%eax
  101cf2:	66 8b 00             	mov    (%eax),%ax
  101cf5:	66 c1 e8 08          	shr    $0x8,%ax
  101cf9:	09 d0                	or     %edx,%eax
  101cfb:	8b 55 08             	mov    0x8(%ebp),%edx
  101cfe:	66 89 02             	mov    %ax,(%edx)
  101d01:	8b 45 0c             	mov    0xc(%ebp),%eax
  101d04:	66 8b 00             	mov    (%eax),%ax
  101d07:	b0 00                	mov    $0x0,%al
  101d09:	89 c2                	mov    %eax,%edx
  101d0b:	8b 45 0c             	mov    0xc(%ebp),%eax
  101d0e:	66 8b 00             	mov    (%eax),%ax
  101d11:	66 c1 e8 08          	shr    $0x8,%ax
  101d15:	09 d0                	or     %edx,%eax
  101d17:	8b 55 0c             	mov    0xc(%ebp),%edx
  101d1a:	66 89 02             	mov    %ax,(%edx)
  101d1d:	8b 45 08             	mov    0x8(%ebp),%eax
  101d20:	66 8b 40 02          	mov    0x2(%eax),%ax
  101d24:	0f bf d0             	movswl %ax,%edx
  101d27:	8b 45 0c             	mov    0xc(%ebp),%eax
  101d2a:	66 8b 40 02          	mov    0x2(%eax),%ax
  101d2e:	98                   	cwtl   
  101d2f:	29 c2                	sub    %eax,%edx
  101d31:	89 d0                	mov    %edx,%eax
  101d33:	5d                   	pop    %ebp
  101d34:	c3                   	ret    

00101d35 <copy_info>:
  101d35:	55                   	push   %ebp
  101d36:	89 e5                	mov    %esp,%ebp
  101d38:	8b 45 0c             	mov    0xc(%ebp),%eax
  101d3b:	66 8b 00             	mov    (%eax),%ax
  101d3e:	8b 55 08             	mov    0x8(%ebp),%edx
  101d41:	66 89 02             	mov    %ax,(%edx)
  101d44:	8b 45 0c             	mov    0xc(%ebp),%eax
  101d47:	66 8b 40 02          	mov    0x2(%eax),%ax
  101d4b:	8b 55 08             	mov    0x8(%ebp),%edx
  101d4e:	66 89 42 02          	mov    %ax,0x2(%edx)
  101d52:	90                   	nop
  101d53:	5d                   	pop    %ebp
  101d54:	c3                   	ret    

00101d55 <core_bench_list>:
  101d55:	55                   	push   %ebp
  101d56:	89 e5                	mov    %esp,%ebp
  101d58:	83 ec 38             	sub    $0x38,%esp
  101d5b:	8b 45 0c             	mov    0xc(%ebp),%eax
  101d5e:	66 89 45 d4          	mov    %ax,-0x2c(%ebp)
  101d62:	66 c7 45 f6 00 00    	movw   $0x0,-0xa(%ebp)
  101d68:	66 c7 45 f4 00 00    	movw   $0x0,-0xc(%ebp)
  101d6e:	66 c7 45 f2 00 00    	movw   $0x0,-0xe(%ebp)
  101d74:	8b 45 08             	mov    0x8(%ebp),%eax
  101d77:	8b 40 24             	mov    0x24(%eax),%eax
  101d7a:	89 45 ec             	mov    %eax,-0x14(%ebp)
  101d7d:	8b 45 08             	mov    0x8(%ebp),%eax
  101d80:	8b 40 04             	mov    0x4(%eax),%eax
  101d83:	66 89 45 e4          	mov    %ax,-0x1c(%ebp)
  101d87:	c7 45 d8 00 00 00 00 	movl   $0x0,-0x28(%ebp)
  101d8e:	8b 45 d4             	mov    -0x2c(%ebp),%eax
  101d91:	66 89 45 da          	mov    %ax,-0x26(%ebp)
  101d95:	66 c7 45 e6 00 00    	movw   $0x0,-0x1a(%ebp)
  101d9b:	e9 cd 00 00 00       	jmp    101e6d <core_bench_list+0x118>
  101da0:	66 8b 45 e6          	mov    -0x1a(%ebp),%ax
  101da4:	0f b6 c0             	movzbl %al,%eax
  101da7:	66 89 45 d8          	mov    %ax,-0x28(%ebp)
  101dab:	83 ec 08             	sub    $0x8,%esp
  101dae:	8d 45 d8             	lea    -0x28(%ebp),%eax
  101db1:	50                   	push   %eax
  101db2:	ff 75 ec             	pushl  -0x14(%ebp)
  101db5:	e8 82 04 00 00       	call   10223c <core_list_find>
  101dba:	83 c4 10             	add    $0x10,%esp
  101dbd:	89 45 dc             	mov    %eax,-0x24(%ebp)
  101dc0:	83 ec 0c             	sub    $0xc,%esp
  101dc3:	ff 75 ec             	pushl  -0x14(%ebp)
  101dc6:	e8 d6 04 00 00       	call   1022a1 <core_list_reverse>
  101dcb:	83 c4 10             	add    $0x10,%esp
  101dce:	89 45 ec             	mov    %eax,-0x14(%ebp)
  101dd1:	83 7d dc 00          	cmpl   $0x0,-0x24(%ebp)
  101dd5:	75 21                	jne    101df8 <core_bench_list+0xa3>
  101dd7:	66 8b 45 f2          	mov    -0xe(%ebp),%ax
  101ddb:	40                   	inc    %eax
  101ddc:	66 89 45 f2          	mov    %ax,-0xe(%ebp)
  101de0:	8b 45 ec             	mov    -0x14(%ebp),%eax
  101de3:	8b 00                	mov    (%eax),%eax
  101de5:	8b 40 04             	mov    0x4(%eax),%eax
  101de8:	66 8b 00             	mov    (%eax),%ax
  101deb:	66 c1 f8 08          	sar    $0x8,%ax
  101def:	83 e0 01             	and    $0x1,%eax
  101df2:	66 01 45 f6          	add    %ax,-0xa(%ebp)
  101df6:	eb 5a                	jmp    101e52 <core_bench_list+0xfd>
  101df8:	8b 45 f4             	mov    -0xc(%ebp),%eax
  101dfb:	40                   	inc    %eax
  101dfc:	66 89 45 f4          	mov    %ax,-0xc(%ebp)
  101e00:	8b 45 dc             	mov    -0x24(%ebp),%eax
  101e03:	8b 40 04             	mov    0x4(%eax),%eax
  101e06:	66 8b 00             	mov    (%eax),%ax
  101e09:	98                   	cwtl   
  101e0a:	83 e0 01             	and    $0x1,%eax
  101e0d:	85 c0                	test   %eax,%eax
  101e0f:	74 14                	je     101e25 <core_bench_list+0xd0>
  101e11:	8b 45 dc             	mov    -0x24(%ebp),%eax
  101e14:	8b 40 04             	mov    0x4(%eax),%eax
  101e17:	66 8b 00             	mov    (%eax),%ax
  101e1a:	66 c1 f8 09          	sar    $0x9,%ax
  101e1e:	83 e0 01             	and    $0x1,%eax
  101e21:	66 01 45 f6          	add    %ax,-0xa(%ebp)
  101e25:	8b 45 dc             	mov    -0x24(%ebp),%eax
  101e28:	8b 00                	mov    (%eax),%eax
  101e2a:	85 c0                	test   %eax,%eax
  101e2c:	74 24                	je     101e52 <core_bench_list+0xfd>
  101e2e:	8b 45 dc             	mov    -0x24(%ebp),%eax
  101e31:	8b 00                	mov    (%eax),%eax
  101e33:	89 45 e8             	mov    %eax,-0x18(%ebp)
  101e36:	8b 45 e8             	mov    -0x18(%ebp),%eax
  101e39:	8b 10                	mov    (%eax),%edx
  101e3b:	8b 45 dc             	mov    -0x24(%ebp),%eax
  101e3e:	89 10                	mov    %edx,(%eax)
  101e40:	8b 45 ec             	mov    -0x14(%ebp),%eax
  101e43:	8b 10                	mov    (%eax),%edx
  101e45:	8b 45 e8             	mov    -0x18(%ebp),%eax
  101e48:	89 10                	mov    %edx,(%eax)
  101e4a:	8b 45 ec             	mov    -0x14(%ebp),%eax
  101e4d:	8b 55 e8             	mov    -0x18(%ebp),%edx
  101e50:	89 10                	mov    %edx,(%eax)
  101e52:	66 8b 45 da          	mov    -0x26(%ebp),%ax
  101e56:	66 85 c0             	test   %ax,%ax
  101e59:	78 09                	js     101e64 <core_bench_list+0x10f>
  101e5b:	66 8b 45 da          	mov    -0x26(%ebp),%ax
  101e5f:	40                   	inc    %eax
  101e60:	66 89 45 da          	mov    %ax,-0x26(%ebp)
  101e64:	66 8b 45 e6          	mov    -0x1a(%ebp),%ax
  101e68:	40                   	inc    %eax
  101e69:	66 89 45 e6          	mov    %ax,-0x1a(%ebp)
  101e6d:	66 8b 45 e6          	mov    -0x1a(%ebp),%ax
  101e71:	66 3b 45 e4          	cmp    -0x1c(%ebp),%ax
  101e75:	0f 8c 25 ff ff ff    	jl     101da0 <core_bench_list+0x4b>
  101e7b:	8b 45 f4             	mov    -0xc(%ebp),%eax
  101e7e:	c1 e0 02             	shl    $0x2,%eax
  101e81:	66 2b 45 f2          	sub    -0xe(%ebp),%ax
  101e85:	66 01 45 f6          	add    %ax,-0xa(%ebp)
  101e89:	66 83 7d d4 00       	cmpw   $0x0,-0x2c(%ebp)
  101e8e:	7e 19                	jle    101ea9 <core_bench_list+0x154>
  101e90:	83 ec 04             	sub    $0x4,%esp
  101e93:	ff 75 08             	pushl  0x8(%ebp)
  101e96:	68 9c 1c 10 00       	push   $0x101c9c
  101e9b:	ff 75 ec             	pushl  -0x14(%ebp)
  101e9e:	e8 34 04 00 00       	call   1022d7 <core_list_mergesort>
  101ea3:	83 c4 10             	add    $0x10,%esp
  101ea6:	89 45 ec             	mov    %eax,-0x14(%ebp)
  101ea9:	8b 45 ec             	mov    -0x14(%ebp),%eax
  101eac:	8b 00                	mov    (%eax),%eax
  101eae:	83 ec 0c             	sub    $0xc,%esp
  101eb1:	50                   	push   %eax
  101eb2:	e8 04 03 00 00       	call   1021bb <core_list_remove>
  101eb7:	83 c4 10             	add    $0x10,%esp
  101eba:	89 45 e0             	mov    %eax,-0x20(%ebp)
  101ebd:	83 ec 08             	sub    $0x8,%esp
  101ec0:	8d 45 d8             	lea    -0x28(%ebp),%eax
  101ec3:	50                   	push   %eax
  101ec4:	ff 75 ec             	pushl  -0x14(%ebp)
  101ec7:	e8 70 03 00 00       	call   10223c <core_list_find>
  101ecc:	83 c4 10             	add    $0x10,%esp
  101ecf:	89 45 e8             	mov    %eax,-0x18(%ebp)
  101ed2:	83 7d e8 00          	cmpl   $0x0,-0x18(%ebp)
  101ed6:	75 31                	jne    101f09 <core_bench_list+0x1b4>
  101ed8:	8b 45 ec             	mov    -0x14(%ebp),%eax
  101edb:	8b 00                	mov    (%eax),%eax
  101edd:	89 45 e8             	mov    %eax,-0x18(%ebp)
  101ee0:	eb 27                	jmp    101f09 <core_bench_list+0x1b4>
  101ee2:	0f b7 55 f6          	movzwl -0xa(%ebp),%edx
  101ee6:	8b 45 ec             	mov    -0x14(%ebp),%eax
  101ee9:	8b 40 04             	mov    0x4(%eax),%eax
  101eec:	66 8b 00             	mov    (%eax),%ax
  101eef:	98                   	cwtl   
  101ef0:	83 ec 08             	sub    $0x8,%esp
  101ef3:	52                   	push   %edx
  101ef4:	50                   	push   %eax
  101ef5:	e8 fc ee ff ff       	call   100df6 <crc16>
  101efa:	83 c4 10             	add    $0x10,%esp
  101efd:	66 89 45 f6          	mov    %ax,-0xa(%ebp)
  101f01:	8b 45 e8             	mov    -0x18(%ebp),%eax
  101f04:	8b 00                	mov    (%eax),%eax
  101f06:	89 45 e8             	mov    %eax,-0x18(%ebp)
  101f09:	83 7d e8 00          	cmpl   $0x0,-0x18(%ebp)
  101f0d:	75 d3                	jne    101ee2 <core_bench_list+0x18d>
  101f0f:	8b 45 ec             	mov    -0x14(%ebp),%eax
  101f12:	8b 00                	mov    (%eax),%eax
  101f14:	83 ec 08             	sub    $0x8,%esp
  101f17:	50                   	push   %eax
  101f18:	ff 75 e0             	pushl  -0x20(%ebp)
  101f1b:	e8 e1 02 00 00       	call   102201 <core_list_undo_remove>
  101f20:	83 c4 10             	add    $0x10,%esp
  101f23:	89 45 e0             	mov    %eax,-0x20(%ebp)
  101f26:	83 ec 04             	sub    $0x4,%esp
  101f29:	6a 00                	push   $0x0
  101f2b:	68 dc 1c 10 00       	push   $0x101cdc
  101f30:	ff 75 ec             	pushl  -0x14(%ebp)
  101f33:	e8 9f 03 00 00       	call   1022d7 <core_list_mergesort>
  101f38:	83 c4 10             	add    $0x10,%esp
  101f3b:	89 45 ec             	mov    %eax,-0x14(%ebp)
  101f3e:	8b 45 ec             	mov    -0x14(%ebp),%eax
  101f41:	8b 00                	mov    (%eax),%eax
  101f43:	89 45 e8             	mov    %eax,-0x18(%ebp)
  101f46:	eb 27                	jmp    101f6f <core_bench_list+0x21a>
  101f48:	0f b7 55 f6          	movzwl -0xa(%ebp),%edx
  101f4c:	8b 45 ec             	mov    -0x14(%ebp),%eax
  101f4f:	8b 40 04             	mov    0x4(%eax),%eax
  101f52:	66 8b 00             	mov    (%eax),%ax
  101f55:	98                   	cwtl   
  101f56:	83 ec 08             	sub    $0x8,%esp
  101f59:	52                   	push   %edx
  101f5a:	50                   	push   %eax
  101f5b:	e8 96 ee ff ff       	call   100df6 <crc16>
  101f60:	83 c4 10             	add    $0x10,%esp
  101f63:	66 89 45 f6          	mov    %ax,-0xa(%ebp)
  101f67:	8b 45 e8             	mov    -0x18(%ebp),%eax
  101f6a:	8b 00                	mov    (%eax),%eax
  101f6c:	89 45 e8             	mov    %eax,-0x18(%ebp)
  101f6f:	83 7d e8 00          	cmpl   $0x0,-0x18(%ebp)
  101f73:	75 d3                	jne    101f48 <core_bench_list+0x1f3>
  101f75:	66 8b 45 f6          	mov    -0xa(%ebp),%ax
  101f79:	c9                   	leave  
  101f7a:	c3                   	ret    

00101f7b <core_list_init>:
  101f7b:	55                   	push   %ebp
  101f7c:	89 e5                	mov    %esp,%ebp
  101f7e:	83 ec 48             	sub    $0x48,%esp
  101f81:	8b 45 10             	mov    0x10(%ebp),%eax
  101f84:	66 89 45 c4          	mov    %ax,-0x3c(%ebp)
  101f88:	c7 45 ec 14 00 00 00 	movl   $0x14,-0x14(%ebp)
  101f8f:	8b 45 08             	mov    0x8(%ebp),%eax
  101f92:	ba 00 00 00 00       	mov    $0x0,%edx
  101f97:	f7 75 ec             	divl   -0x14(%ebp)
  101f9a:	83 e8 02             	sub    $0x2,%eax
  101f9d:	89 45 e8             	mov    %eax,-0x18(%ebp)
  101fa0:	8b 45 0c             	mov    0xc(%ebp),%eax
  101fa3:	8b 55 e8             	mov    -0x18(%ebp),%edx
  101fa6:	c1 e2 03             	shl    $0x3,%edx
  101fa9:	01 d0                	add    %edx,%eax
  101fab:	89 45 e4             	mov    %eax,-0x1c(%ebp)
  101fae:	8b 45 e4             	mov    -0x1c(%ebp),%eax
  101fb1:	89 45 d0             	mov    %eax,-0x30(%ebp)
  101fb4:	8b 45 d0             	mov    -0x30(%ebp),%eax
  101fb7:	8b 55 e8             	mov    -0x18(%ebp),%edx
  101fba:	c1 e2 02             	shl    $0x2,%edx
  101fbd:	01 d0                	add    %edx,%eax
  101fbf:	89 45 e0             	mov    %eax,-0x20(%ebp)
  101fc2:	8b 45 0c             	mov    0xc(%ebp),%eax
  101fc5:	89 45 dc             	mov    %eax,-0x24(%ebp)
  101fc8:	8b 45 dc             	mov    -0x24(%ebp),%eax
  101fcb:	c7 00 00 00 00 00    	movl   $0x0,(%eax)
  101fd1:	8b 55 d0             	mov    -0x30(%ebp),%edx
  101fd4:	8b 45 dc             	mov    -0x24(%ebp),%eax
  101fd7:	89 50 04             	mov    %edx,0x4(%eax)
  101fda:	8b 45 dc             	mov    -0x24(%ebp),%eax
  101fdd:	8b 40 04             	mov    0x4(%eax),%eax
  101fe0:	66 c7 40 02 00 00    	movw   $0x0,0x2(%eax)
  101fe6:	8b 45 dc             	mov    -0x24(%ebp),%eax
  101fe9:	8b 40 04             	mov    0x4(%eax),%eax
  101fec:	66 c7 00 80 80       	movw   $0x8080,(%eax)
  101ff1:	8b 45 0c             	mov    0xc(%ebp),%eax
  101ff4:	83 c0 08             	add    $0x8,%eax
  101ff7:	89 45 0c             	mov    %eax,0xc(%ebp)
  101ffa:	8b 45 d0             	mov    -0x30(%ebp),%eax
  101ffd:	83 c0 04             	add    $0x4,%eax
  102000:	89 45 d0             	mov    %eax,-0x30(%ebp)
  102003:	66 c7 45 ce ff 7f    	movw   $0x7fff,-0x32(%ebp)
  102009:	66 c7 45 cc ff ff    	movw   $0xffff,-0x34(%ebp)
  10200f:	83 ec 08             	sub    $0x8,%esp
  102012:	ff 75 e0             	pushl  -0x20(%ebp)
  102015:	ff 75 e4             	pushl  -0x1c(%ebp)
  102018:	8d 45 d0             	lea    -0x30(%ebp),%eax
  10201b:	50                   	push   %eax
  10201c:	8d 45 0c             	lea    0xc(%ebp),%eax
  10201f:	50                   	push   %eax
  102020:	8d 45 cc             	lea    -0x34(%ebp),%eax
  102023:	50                   	push   %eax
  102024:	ff 75 dc             	pushl  -0x24(%ebp)
  102027:	e8 0b 01 00 00       	call   102137 <core_list_insert_new>
  10202c:	83 c4 20             	add    $0x20,%esp
  10202f:	c7 45 f4 00 00 00 00 	movl   $0x0,-0xc(%ebp)
  102036:	eb 5d                	jmp    102095 <core_list_init+0x11a>
  102038:	8b 45 f4             	mov    -0xc(%ebp),%eax
  10203b:	89 c2                	mov    %eax,%edx
  10203d:	8b 45 c4             	mov    -0x3c(%ebp),%eax
  102040:	31 d0                	xor    %edx,%eax
  102042:	83 e0 0f             	and    $0xf,%eax
  102045:	66 89 45 d8          	mov    %ax,-0x28(%ebp)
  102049:	8b 45 d8             	mov    -0x28(%ebp),%eax
  10204c:	8d 14 c5 00 00 00 00 	lea    0x0(,%eax,8),%edx
  102053:	8b 45 f4             	mov    -0xc(%ebp),%eax
  102056:	83 e0 07             	and    $0x7,%eax
  102059:	09 d0                	or     %edx,%eax
  10205b:	66 89 45 d6          	mov    %ax,-0x2a(%ebp)
  10205f:	0f b7 45 d6          	movzwl -0x2a(%ebp),%eax
  102063:	c1 e0 08             	shl    $0x8,%eax
  102066:	89 c2                	mov    %eax,%edx
  102068:	66 8b 45 d6          	mov    -0x2a(%ebp),%ax
  10206c:	09 d0                	or     %edx,%eax
  10206e:	66 89 45 cc          	mov    %ax,-0x34(%ebp)
  102072:	83 ec 08             	sub    $0x8,%esp
  102075:	ff 75 e0             	pushl  -0x20(%ebp)
  102078:	ff 75 e4             	pushl  -0x1c(%ebp)
  10207b:	8d 45 d0             	lea    -0x30(%ebp),%eax
  10207e:	50                   	push   %eax
  10207f:	8d 45 0c             	lea    0xc(%ebp),%eax
  102082:	50                   	push   %eax
  102083:	8d 45 cc             	lea    -0x34(%ebp),%eax
  102086:	50                   	push   %eax
  102087:	ff 75 dc             	pushl  -0x24(%ebp)
  10208a:	e8 a8 00 00 00       	call   102137 <core_list_insert_new>
  10208f:	83 c4 20             	add    $0x20,%esp
  102092:	ff 45 f4             	incl   -0xc(%ebp)
  102095:	8b 45 f4             	mov    -0xc(%ebp),%eax
  102098:	3b 45 e8             	cmp    -0x18(%ebp),%eax
  10209b:	72 9b                	jb     102038 <core_list_init+0xbd>
  10209d:	8b 45 dc             	mov    -0x24(%ebp),%eax
  1020a0:	8b 00                	mov    (%eax),%eax
  1020a2:	89 45 f0             	mov    %eax,-0x10(%ebp)
  1020a5:	c7 45 f4 01 00 00 00 	movl   $0x1,-0xc(%ebp)
  1020ac:	eb 63                	jmp    102111 <core_list_init+0x196>
  1020ae:	8b 45 e8             	mov    -0x18(%ebp),%eax
  1020b1:	ba cd cc cc cc       	mov    $0xcccccccd,%edx
  1020b6:	f7 e2                	mul    %edx
  1020b8:	89 d0                	mov    %edx,%eax
  1020ba:	c1 e8 02             	shr    $0x2,%eax
  1020bd:	39 45 f4             	cmp    %eax,-0xc(%ebp)
  1020c0:	73 15                	jae    1020d7 <core_list_init+0x15c>
  1020c2:	8b 45 f4             	mov    -0xc(%ebp),%eax
  1020c5:	8d 50 01             	lea    0x1(%eax),%edx
  1020c8:	89 55 f4             	mov    %edx,-0xc(%ebp)
  1020cb:	8b 55 f0             	mov    -0x10(%ebp),%edx
  1020ce:	8b 52 04             	mov    0x4(%edx),%edx
  1020d1:	66 89 42 02          	mov    %ax,0x2(%edx)
  1020d5:	eb 32                	jmp    102109 <core_list_init+0x18e>
  1020d7:	8b 45 f4             	mov    -0xc(%ebp),%eax
  1020da:	8d 50 01             	lea    0x1(%eax),%edx
  1020dd:	89 55 f4             	mov    %edx,-0xc(%ebp)
  1020e0:	89 c2                	mov    %eax,%edx
  1020e2:	8b 45 c4             	mov    -0x3c(%ebp),%eax
  1020e5:	31 d0                	xor    %edx,%eax
  1020e7:	66 89 45 da          	mov    %ax,-0x26(%ebp)
  1020eb:	8b 45 f4             	mov    -0xc(%ebp),%eax
  1020ee:	c1 e0 08             	shl    $0x8,%eax
  1020f1:	25 00 07 00 00       	and    $0x700,%eax
  1020f6:	66 0b 45 da          	or     -0x26(%ebp),%ax
  1020fa:	8b 55 f0             	mov    -0x10(%ebp),%edx
  1020fd:	8b 52 04             	mov    0x4(%edx),%edx
  102100:	25 ff 3f 00 00       	and    $0x3fff,%eax
  102105:	66 89 42 02          	mov    %ax,0x2(%edx)
  102109:	8b 45 f0             	mov    -0x10(%ebp),%eax
  10210c:	8b 00                	mov    (%eax),%eax
  10210e:	89 45 f0             	mov    %eax,-0x10(%ebp)
  102111:	8b 45 f0             	mov    -0x10(%ebp),%eax
  102114:	8b 00                	mov    (%eax),%eax
  102116:	85 c0                	test   %eax,%eax
  102118:	75 94                	jne    1020ae <core_list_init+0x133>
  10211a:	83 ec 04             	sub    $0x4,%esp
  10211d:	6a 00                	push   $0x0
  10211f:	68 dc 1c 10 00       	push   $0x101cdc
  102124:	ff 75 dc             	pushl  -0x24(%ebp)
  102127:	e8 ab 01 00 00       	call   1022d7 <core_list_mergesort>
  10212c:	83 c4 10             	add    $0x10,%esp
  10212f:	89 45 dc             	mov    %eax,-0x24(%ebp)
  102132:	8b 45 dc             	mov    -0x24(%ebp),%eax
  102135:	c9                   	leave  
  102136:	c3                   	ret    

00102137 <core_list_insert_new>:
  102137:	55                   	push   %ebp
  102138:	89 e5                	mov    %esp,%ebp
  10213a:	83 ec 10             	sub    $0x10,%esp
  10213d:	8b 45 10             	mov    0x10(%ebp),%eax
  102140:	8b 00                	mov    (%eax),%eax
  102142:	83 c0 08             	add    $0x8,%eax
  102145:	39 45 18             	cmp    %eax,0x18(%ebp)
  102148:	77 07                	ja     102151 <core_list_insert_new+0x1a>
  10214a:	b8 00 00 00 00       	mov    $0x0,%eax
  10214f:	eb 68                	jmp    1021b9 <core_list_insert_new+0x82>
  102151:	8b 45 14             	mov    0x14(%ebp),%eax
  102154:	8b 00                	mov    (%eax),%eax
  102156:	83 c0 04             	add    $0x4,%eax
  102159:	39 45 1c             	cmp    %eax,0x1c(%ebp)
  10215c:	77 07                	ja     102165 <core_list_insert_new+0x2e>
  10215e:	b8 00 00 00 00       	mov    $0x0,%eax
  102163:	eb 54                	jmp    1021b9 <core_list_insert_new+0x82>
  102165:	8b 45 10             	mov    0x10(%ebp),%eax
  102168:	8b 00                	mov    (%eax),%eax
  10216a:	89 45 fc             	mov    %eax,-0x4(%ebp)
  10216d:	8b 45 10             	mov    0x10(%ebp),%eax
  102170:	8b 00                	mov    (%eax),%eax
  102172:	8d 50 08             	lea    0x8(%eax),%edx
  102175:	8b 45 10             	mov    0x10(%ebp),%eax
  102178:	89 10                	mov    %edx,(%eax)
  10217a:	8b 45 08             	mov    0x8(%ebp),%eax
  10217d:	8b 10                	mov    (%eax),%edx
  10217f:	8b 45 fc             	mov    -0x4(%ebp),%eax
  102182:	89 10                	mov    %edx,(%eax)
  102184:	8b 45 08             	mov    0x8(%ebp),%eax
  102187:	8b 55 fc             	mov    -0x4(%ebp),%edx
  10218a:	89 10                	mov    %edx,(%eax)
  10218c:	8b 45 14             	mov    0x14(%ebp),%eax
  10218f:	8b 10                	mov    (%eax),%edx
  102191:	8b 45 fc             	mov    -0x4(%ebp),%eax
  102194:	89 50 04             	mov    %edx,0x4(%eax)
  102197:	8b 45 14             	mov    0x14(%ebp),%eax
  10219a:	8b 00                	mov    (%eax),%eax
  10219c:	8d 50 04             	lea    0x4(%eax),%edx
  10219f:	8b 45 14             	mov    0x14(%ebp),%eax
  1021a2:	89 10                	mov    %edx,(%eax)
  1021a4:	8b 45 fc             	mov    -0x4(%ebp),%eax
  1021a7:	8b 40 04             	mov    0x4(%eax),%eax
  1021aa:	ff 75 0c             	pushl  0xc(%ebp)
  1021ad:	50                   	push   %eax
  1021ae:	e8 82 fb ff ff       	call   101d35 <copy_info>
  1021b3:	83 c4 08             	add    $0x8,%esp
  1021b6:	8b 45 fc             	mov    -0x4(%ebp),%eax
  1021b9:	c9                   	leave  
  1021ba:	c3                   	ret    

001021bb <core_list_remove>:
  1021bb:	55                   	push   %ebp
  1021bc:	89 e5                	mov    %esp,%ebp
  1021be:	83 ec 10             	sub    $0x10,%esp
  1021c1:	8b 45 08             	mov    0x8(%ebp),%eax
  1021c4:	8b 00                	mov    (%eax),%eax
  1021c6:	89 45 fc             	mov    %eax,-0x4(%ebp)
  1021c9:	8b 45 08             	mov    0x8(%ebp),%eax
  1021cc:	8b 40 04             	mov    0x4(%eax),%eax
  1021cf:	89 45 f8             	mov    %eax,-0x8(%ebp)
  1021d2:	8b 45 fc             	mov    -0x4(%ebp),%eax
  1021d5:	8b 50 04             	mov    0x4(%eax),%edx
  1021d8:	8b 45 08             	mov    0x8(%ebp),%eax
  1021db:	89 50 04             	mov    %edx,0x4(%eax)
  1021de:	8b 45 fc             	mov    -0x4(%ebp),%eax
  1021e1:	8b 55 f8             	mov    -0x8(%ebp),%edx
  1021e4:	89 50 04             	mov    %edx,0x4(%eax)
  1021e7:	8b 45 08             	mov    0x8(%ebp),%eax
  1021ea:	8b 00                	mov    (%eax),%eax
  1021ec:	8b 10                	mov    (%eax),%edx
  1021ee:	8b 45 08             	mov    0x8(%ebp),%eax
  1021f1:	89 10                	mov    %edx,(%eax)
  1021f3:	8b 45 fc             	mov    -0x4(%ebp),%eax
  1021f6:	c7 00 00 00 00 00    	movl   $0x0,(%eax)
  1021fc:	8b 45 fc             	mov    -0x4(%ebp),%eax
  1021ff:	c9                   	leave  
  102200:	c3                   	ret    

00102201 <core_list_undo_remove>:
  102201:	55                   	push   %ebp
  102202:	89 e5                	mov    %esp,%ebp
  102204:	83 ec 10             	sub    $0x10,%esp
  102207:	8b 45 08             	mov    0x8(%ebp),%eax
  10220a:	8b 40 04             	mov    0x4(%eax),%eax
  10220d:	89 45 fc             	mov    %eax,-0x4(%ebp)
  102210:	8b 45 0c             	mov    0xc(%ebp),%eax
  102213:	8b 50 04             	mov    0x4(%eax),%edx
  102216:	8b 45 08             	mov    0x8(%ebp),%eax
  102219:	89 50 04             	mov    %edx,0x4(%eax)
  10221c:	8b 45 0c             	mov    0xc(%ebp),%eax
  10221f:	8b 55 fc             	mov    -0x4(%ebp),%edx
  102222:	89 50 04             	mov    %edx,0x4(%eax)
  102225:	8b 45 0c             	mov    0xc(%ebp),%eax
  102228:	8b 10                	mov    (%eax),%edx
  10222a:	8b 45 08             	mov    0x8(%ebp),%eax
  10222d:	89 10                	mov    %edx,(%eax)
  10222f:	8b 45 0c             	mov    0xc(%ebp),%eax
  102232:	8b 55 08             	mov    0x8(%ebp),%edx
  102235:	89 10                	mov    %edx,(%eax)
  102237:	8b 45 08             	mov    0x8(%ebp),%eax
  10223a:	c9                   	leave  
  10223b:	c3                   	ret    

0010223c <core_list_find>:
  10223c:	55                   	push   %ebp
  10223d:	89 e5                	mov    %esp,%ebp
  10223f:	8b 45 0c             	mov    0xc(%ebp),%eax
  102242:	66 8b 40 02          	mov    0x2(%eax),%ax
  102246:	66 85 c0             	test   %ax,%ax
  102249:	78 33                	js     10227e <core_list_find+0x42>
  10224b:	eb 08                	jmp    102255 <core_list_find+0x19>
  10224d:	8b 45 08             	mov    0x8(%ebp),%eax
  102250:	8b 00                	mov    (%eax),%eax
  102252:	89 45 08             	mov    %eax,0x8(%ebp)
  102255:	83 7d 08 00          	cmpl   $0x0,0x8(%ebp)
  102259:	74 16                	je     102271 <core_list_find+0x35>
  10225b:	8b 45 08             	mov    0x8(%ebp),%eax
  10225e:	8b 40 04             	mov    0x4(%eax),%eax
  102261:	66 8b 50 02          	mov    0x2(%eax),%dx
  102265:	8b 45 0c             	mov    0xc(%ebp),%eax
  102268:	66 8b 40 02          	mov    0x2(%eax),%ax
  10226c:	66 39 c2             	cmp    %ax,%dx
  10226f:	75 dc                	jne    10224d <core_list_find+0x11>
  102271:	8b 45 08             	mov    0x8(%ebp),%eax
  102274:	eb 29                	jmp    10229f <core_list_find+0x63>
  102276:	8b 45 08             	mov    0x8(%ebp),%eax
  102279:	8b 00                	mov    (%eax),%eax
  10227b:	89 45 08             	mov    %eax,0x8(%ebp)
  10227e:	83 7d 08 00          	cmpl   $0x0,0x8(%ebp)
  102282:	74 18                	je     10229c <core_list_find+0x60>
  102284:	8b 45 08             	mov    0x8(%ebp),%eax
  102287:	8b 40 04             	mov    0x4(%eax),%eax
  10228a:	66 8b 00             	mov    (%eax),%ax
  10228d:	98                   	cwtl   
  10228e:	0f b6 d0             	movzbl %al,%edx
  102291:	8b 45 0c             	mov    0xc(%ebp),%eax
  102294:	66 8b 00             	mov    (%eax),%ax
  102297:	98                   	cwtl   
  102298:	39 c2                	cmp    %eax,%edx
  10229a:	75 da                	jne    102276 <core_list_find+0x3a>
  10229c:	8b 45 08             	mov    0x8(%ebp),%eax
  10229f:	5d                   	pop    %ebp
  1022a0:	c3                   	ret    

001022a1 <core_list_reverse>:
  1022a1:	55                   	push   %ebp
  1022a2:	89 e5                	mov    %esp,%ebp
  1022a4:	83 ec 10             	sub    $0x10,%esp
  1022a7:	c7 45 fc 00 00 00 00 	movl   $0x0,-0x4(%ebp)
  1022ae:	eb 1c                	jmp    1022cc <core_list_reverse+0x2b>
  1022b0:	8b 45 08             	mov    0x8(%ebp),%eax
  1022b3:	8b 00                	mov    (%eax),%eax
  1022b5:	89 45 f8             	mov    %eax,-0x8(%ebp)
  1022b8:	8b 45 08             	mov    0x8(%ebp),%eax
  1022bb:	8b 55 fc             	mov    -0x4(%ebp),%edx
  1022be:	89 10                	mov    %edx,(%eax)
  1022c0:	8b 45 08             	mov    0x8(%ebp),%eax
  1022c3:	89 45 fc             	mov    %eax,-0x4(%ebp)
  1022c6:	8b 45 f8             	mov    -0x8(%ebp),%eax
  1022c9:	89 45 08             	mov    %eax,0x8(%ebp)
  1022cc:	83 7d 08 00          	cmpl   $0x0,0x8(%ebp)
  1022d0:	75 de                	jne    1022b0 <core_list_reverse+0xf>
  1022d2:	8b 45 fc             	mov    -0x4(%ebp),%eax
  1022d5:	c9                   	leave  
  1022d6:	c3                   	ret    

001022d7 <core_list_mergesort>:
  1022d7:	55                   	push   %ebp
  1022d8:	89 e5                	mov    %esp,%ebp
  1022da:	83 ec 38             	sub    $0x38,%esp
  1022dd:	c7 45 e4 01 00 00 00 	movl   $0x1,-0x1c(%ebp)
  1022e4:	8b 45 08             	mov    0x8(%ebp),%eax
  1022e7:	89 45 f4             	mov    %eax,-0xc(%ebp)
  1022ea:	c7 45 08 00 00 00 00 	movl   $0x0,0x8(%ebp)
  1022f1:	c7 45 e8 00 00 00 00 	movl   $0x0,-0x18(%ebp)
  1022f8:	c7 45 e0 00 00 00 00 	movl   $0x0,-0x20(%ebp)
  1022ff:	e9 fb 00 00 00       	jmp    1023ff <core_list_mergesort+0x128>
  102304:	ff 45 e0             	incl   -0x20(%ebp)
  102307:	8b 45 f4             	mov    -0xc(%ebp),%eax
  10230a:	89 45 f0             	mov    %eax,-0x10(%ebp)
  10230d:	c7 45 dc 00 00 00 00 	movl   $0x0,-0x24(%ebp)
  102314:	c7 45 d4 00 00 00 00 	movl   $0x0,-0x2c(%ebp)
  10231b:	eb 14                	jmp    102331 <core_list_mergesort+0x5a>
  10231d:	ff 45 dc             	incl   -0x24(%ebp)
  102320:	8b 45 f0             	mov    -0x10(%ebp),%eax
  102323:	8b 00                	mov    (%eax),%eax
  102325:	89 45 f0             	mov    %eax,-0x10(%ebp)
  102328:	83 7d f0 00          	cmpl   $0x0,-0x10(%ebp)
  10232c:	74 0d                	je     10233b <core_list_mergesort+0x64>
  10232e:	ff 45 d4             	incl   -0x2c(%ebp)
  102331:	8b 45 d4             	mov    -0x2c(%ebp),%eax
  102334:	3b 45 e4             	cmp    -0x1c(%ebp),%eax
  102337:	7c e4                	jl     10231d <core_list_mergesort+0x46>
  102339:	eb 01                	jmp    10233c <core_list_mergesort+0x65>
  10233b:	90                   	nop
  10233c:	8b 45 e4             	mov    -0x1c(%ebp),%eax
  10233f:	89 45 d8             	mov    %eax,-0x28(%ebp)
  102342:	e9 98 00 00 00       	jmp    1023df <core_list_mergesort+0x108>
  102347:	83 7d dc 00          	cmpl   $0x0,-0x24(%ebp)
  10234b:	75 13                	jne    102360 <core_list_mergesort+0x89>
  10234d:	8b 45 f0             	mov    -0x10(%ebp),%eax
  102350:	89 45 ec             	mov    %eax,-0x14(%ebp)
  102353:	8b 45 f0             	mov    -0x10(%ebp),%eax
  102356:	8b 00                	mov    (%eax),%eax
  102358:	89 45 f0             	mov    %eax,-0x10(%ebp)
  10235b:	ff 4d d8             	decl   -0x28(%ebp)
  10235e:	eb 63                	jmp    1023c3 <core_list_mergesort+0xec>
  102360:	83 7d d8 00          	cmpl   $0x0,-0x28(%ebp)
  102364:	74 06                	je     10236c <core_list_mergesort+0x95>
  102366:	83 7d f0 00          	cmpl   $0x0,-0x10(%ebp)
  10236a:	75 13                	jne    10237f <core_list_mergesort+0xa8>
  10236c:	8b 45 f4             	mov    -0xc(%ebp),%eax
  10236f:	89 45 ec             	mov    %eax,-0x14(%ebp)
  102372:	8b 45 f4             	mov    -0xc(%ebp),%eax
  102375:	8b 00                	mov    (%eax),%eax
  102377:	89 45 f4             	mov    %eax,-0xc(%ebp)
  10237a:	ff 4d dc             	decl   -0x24(%ebp)
  10237d:	eb 44                	jmp    1023c3 <core_list_mergesort+0xec>
  10237f:	8b 45 f0             	mov    -0x10(%ebp),%eax
  102382:	8b 50 04             	mov    0x4(%eax),%edx
  102385:	8b 45 f4             	mov    -0xc(%ebp),%eax
  102388:	8b 40 04             	mov    0x4(%eax),%eax
  10238b:	83 ec 04             	sub    $0x4,%esp
  10238e:	ff 75 10             	pushl  0x10(%ebp)
  102391:	52                   	push   %edx
  102392:	50                   	push   %eax
  102393:	8b 45 0c             	mov    0xc(%ebp),%eax
  102396:	ff d0                	call   *%eax
  102398:	83 c4 10             	add    $0x10,%esp
  10239b:	85 c0                	test   %eax,%eax
  10239d:	7f 13                	jg     1023b2 <core_list_mergesort+0xdb>
  10239f:	8b 45 f4             	mov    -0xc(%ebp),%eax
  1023a2:	89 45 ec             	mov    %eax,-0x14(%ebp)
  1023a5:	8b 45 f4             	mov    -0xc(%ebp),%eax
  1023a8:	8b 00                	mov    (%eax),%eax
  1023aa:	89 45 f4             	mov    %eax,-0xc(%ebp)
  1023ad:	ff 4d dc             	decl   -0x24(%ebp)
  1023b0:	eb 11                	jmp    1023c3 <core_list_mergesort+0xec>
  1023b2:	8b 45 f0             	mov    -0x10(%ebp),%eax
  1023b5:	89 45 ec             	mov    %eax,-0x14(%ebp)
  1023b8:	8b 45 f0             	mov    -0x10(%ebp),%eax
  1023bb:	8b 00                	mov    (%eax),%eax
  1023bd:	89 45 f0             	mov    %eax,-0x10(%ebp)
  1023c0:	ff 4d d8             	decl   -0x28(%ebp)
  1023c3:	83 7d e8 00          	cmpl   $0x0,-0x18(%ebp)
  1023c7:	74 0a                	je     1023d3 <core_list_mergesort+0xfc>
  1023c9:	8b 45 e8             	mov    -0x18(%ebp),%eax
  1023cc:	8b 55 ec             	mov    -0x14(%ebp),%edx
  1023cf:	89 10                	mov    %edx,(%eax)
  1023d1:	eb 06                	jmp    1023d9 <core_list_mergesort+0x102>
  1023d3:	8b 45 ec             	mov    -0x14(%ebp),%eax
  1023d6:	89 45 08             	mov    %eax,0x8(%ebp)
  1023d9:	8b 45 ec             	mov    -0x14(%ebp),%eax
  1023dc:	89 45 e8             	mov    %eax,-0x18(%ebp)
  1023df:	83 7d dc 00          	cmpl   $0x0,-0x24(%ebp)
  1023e3:	0f 8f 5e ff ff ff    	jg     102347 <core_list_mergesort+0x70>
  1023e9:	83 7d d8 00          	cmpl   $0x0,-0x28(%ebp)
  1023ed:	7e 0a                	jle    1023f9 <core_list_mergesort+0x122>
  1023ef:	83 7d f0 00          	cmpl   $0x0,-0x10(%ebp)
  1023f3:	0f 85 4e ff ff ff    	jne    102347 <core_list_mergesort+0x70>
  1023f9:	8b 45 f0             	mov    -0x10(%ebp),%eax
  1023fc:	89 45 f4             	mov    %eax,-0xc(%ebp)
  1023ff:	83 7d f4 00          	cmpl   $0x0,-0xc(%ebp)
  102403:	0f 85 fb fe ff ff    	jne    102304 <core_list_mergesort+0x2d>
  102409:	8b 45 e8             	mov    -0x18(%ebp),%eax
  10240c:	c7 00 00 00 00 00    	movl   $0x0,(%eax)
  102412:	83 7d e0 01          	cmpl   $0x1,-0x20(%ebp)
  102416:	7f 05                	jg     10241d <core_list_mergesort+0x146>
  102418:	8b 45 08             	mov    0x8(%ebp),%eax
  10241b:	eb 0d                	jmp    10242a <core_list_mergesort+0x153>
  10241d:	8b 45 e4             	mov    -0x1c(%ebp),%eax
  102420:	01 c0                	add    %eax,%eax
  102422:	89 45 e4             	mov    %eax,-0x1c(%ebp)
  102425:	e9 ba fe ff ff       	jmp    1022e4 <core_list_mergesort+0xd>
  10242a:	c9                   	leave  
  10242b:	c3                   	ret    

0010242c <start_time>:
  10242c:	55                   	push   %ebp
  10242d:	89 e5                	mov    %esp,%ebp
  10242f:	83 ec 08             	sub    $0x8,%esp
  102432:	e8 a4 03 00 00       	call   1027db <uptime>
  102437:	a3 d0 37 10 00       	mov    %eax,0x1037d0
  10243c:	90                   	nop
  10243d:	c9                   	leave  
  10243e:	c3                   	ret    

0010243f <stop_time>:
  10243f:	55                   	push   %ebp
  102440:	89 e5                	mov    %esp,%ebp
  102442:	83 ec 08             	sub    $0x8,%esp
  102445:	e8 91 03 00 00       	call   1027db <uptime>
  10244a:	a3 d4 37 10 00       	mov    %eax,0x1037d4
  10244f:	90                   	nop
  102450:	c9                   	leave  
  102451:	c3                   	ret    

00102452 <get_time>:
  102452:	55                   	push   %ebp
  102453:	89 e5                	mov    %esp,%ebp
  102455:	8b 15 d4 37 10 00    	mov    0x1037d4,%edx
  10245b:	a1 d0 37 10 00       	mov    0x1037d0,%eax
  102460:	29 c2                	sub    %eax,%edx
  102462:	89 d0                	mov    %edx,%eax
  102464:	5d                   	pop    %ebp
  102465:	c3                   	ret    

00102466 <time_in_secs>:
  102466:	55                   	push   %ebp
  102467:	89 e5                	mov    %esp,%ebp
  102469:	8b 45 08             	mov    0x8(%ebp),%eax
  10246c:	5d                   	pop    %ebp
  10246d:	c3                   	ret    

0010246e <portable_init>:
  10246e:	55                   	push   %ebp
  10246f:	89 e5                	mov    %esp,%ebp
  102471:	8b 45 08             	mov    0x8(%ebp),%eax
  102474:	c6 00 01             	movb   $0x1,(%eax)
  102477:	90                   	nop
  102478:	5d                   	pop    %ebp
  102479:	c3                   	ret    

0010247a <portable_fini>:
  10247a:	55                   	push   %ebp
  10247b:	89 e5                	mov    %esp,%ebp
  10247d:	8b 45 08             	mov    0x8(%ebp),%eax
  102480:	c6 00 00             	movb   $0x0,(%eax)
  102483:	90                   	nop
  102484:	5d                   	pop    %ebp
  102485:	c3                   	ret    

00102486 <printf>:
  102486:	55                   	push   %ebp
  102487:	89 e5                	mov    %esp,%ebp
  102489:	81 ec e8 00 00 00    	sub    $0xe8,%esp
  10248f:	8d 45 0c             	lea    0xc(%ebp),%eax
  102492:	89 45 ec             	mov    %eax,-0x14(%ebp)
  102495:	8b 45 ec             	mov    -0x14(%ebp),%eax
  102498:	83 ec 04             	sub    $0x4,%esp
  10249b:	50                   	push   %eax
  10249c:	ff 75 08             	pushl  0x8(%ebp)
  10249f:	8d 85 24 ff ff ff    	lea    -0xdc(%ebp),%eax
  1024a5:	50                   	push   %eax
  1024a6:	e8 4f 00 00 00       	call   1024fa <vsprintf>
  1024ab:	83 c4 10             	add    $0x10,%esp
  1024ae:	83 ec 0c             	sub    $0xc,%esp
  1024b1:	8d 85 24 ff ff ff    	lea    -0xdc(%ebp),%eax
  1024b7:	50                   	push   %eax
  1024b8:	e8 85 02 00 00       	call   102742 <strlen>
  1024bd:	83 c4 10             	add    $0x10,%esp
  1024c0:	89 45 f0             	mov    %eax,-0x10(%ebp)
  1024c3:	c7 45 f4 00 00 00 00 	movl   $0x0,-0xc(%ebp)
  1024ca:	eb 1f                	jmp    1024eb <printf+0x65>
  1024cc:	8d 95 24 ff ff ff    	lea    -0xdc(%ebp),%edx
  1024d2:	8b 45 f4             	mov    -0xc(%ebp),%eax
  1024d5:	01 d0                	add    %edx,%eax
  1024d7:	8a 00                	mov    (%eax),%al
  1024d9:	0f be c0             	movsbl %al,%eax
  1024dc:	83 ec 0c             	sub    $0xc,%esp
  1024df:	50                   	push   %eax
  1024e0:	e8 56 db ff ff       	call   10003b <_putc>
  1024e5:	83 c4 10             	add    $0x10,%esp
  1024e8:	ff 45 f4             	incl   -0xc(%ebp)
  1024eb:	8b 45 f4             	mov    -0xc(%ebp),%eax
  1024ee:	3b 45 f0             	cmp    -0x10(%ebp),%eax
  1024f1:	7c d9                	jl     1024cc <printf+0x46>
  1024f3:	b8 00 00 00 00       	mov    $0x0,%eax
  1024f8:	c9                   	leave  
  1024f9:	c3                   	ret    

001024fa <vsprintf>:
  1024fa:	55                   	push   %ebp
  1024fb:	89 e5                	mov    %esp,%ebp
  1024fd:	81 ec 98 00 00 00    	sub    $0x98,%esp
  102503:	8b 45 08             	mov    0x8(%ebp),%eax
  102506:	89 45 f4             	mov    %eax,-0xc(%ebp)
  102509:	e9 1a 02 00 00       	jmp    102728 <vsprintf+0x22e>
  10250e:	8b 45 0c             	mov    0xc(%ebp),%eax
  102511:	8a 00                	mov    (%eax),%al
  102513:	3c 25                	cmp    $0x25,%al
  102515:	74 15                	je     10252c <vsprintf+0x32>
  102517:	8b 45 f4             	mov    -0xc(%ebp),%eax
  10251a:	8d 50 01             	lea    0x1(%eax),%edx
  10251d:	89 55 f4             	mov    %edx,-0xc(%ebp)
  102520:	8b 55 0c             	mov    0xc(%ebp),%edx
  102523:	8a 12                	mov    (%edx),%dl
  102525:	88 10                	mov    %dl,(%eax)
  102527:	e9 f9 01 00 00       	jmp    102725 <vsprintf+0x22b>
  10252c:	c7 45 e0 00 00 00 00 	movl   $0x0,-0x20(%ebp)
  102533:	ff 45 0c             	incl   0xc(%ebp)
  102536:	eb 1f                	jmp    102557 <vsprintf+0x5d>
  102538:	8b 45 0c             	mov    0xc(%ebp),%eax
  10253b:	8a 00                	mov    (%eax),%al
  10253d:	3c 20                	cmp    $0x20,%al
  10253f:	75 06                	jne    102547 <vsprintf+0x4d>
  102541:	83 4d e0 08          	orl    $0x8,-0x20(%ebp)
  102545:	eb 0d                	jmp    102554 <vsprintf+0x5a>
  102547:	8b 45 0c             	mov    0xc(%ebp),%eax
  10254a:	8a 00                	mov    (%eax),%al
  10254c:	3c 30                	cmp    $0x30,%al
  10254e:	75 04                	jne    102554 <vsprintf+0x5a>
  102550:	83 4d e0 01          	orl    $0x1,-0x20(%ebp)
  102554:	ff 45 0c             	incl   0xc(%ebp)
  102557:	8b 45 0c             	mov    0xc(%ebp),%eax
  10255a:	8a 00                	mov    (%eax),%al
  10255c:	3c 20                	cmp    $0x20,%al
  10255e:	74 d8                	je     102538 <vsprintf+0x3e>
  102560:	8b 45 0c             	mov    0xc(%ebp),%eax
  102563:	8a 00                	mov    (%eax),%al
  102565:	3c 30                	cmp    $0x30,%al
  102567:	74 cf                	je     102538 <vsprintf+0x3e>
  102569:	c7 45 dc 00 00 00 00 	movl   $0x0,-0x24(%ebp)
  102570:	8b 45 0c             	mov    0xc(%ebp),%eax
  102573:	8a 00                	mov    (%eax),%al
  102575:	3c 2f                	cmp    $0x2f,%al
  102577:	7e 40                	jle    1025b9 <vsprintf+0xbf>
  102579:	8b 45 0c             	mov    0xc(%ebp),%eax
  10257c:	8a 00                	mov    (%eax),%al
  10257e:	3c 39                	cmp    $0x39,%al
  102580:	7f 37                	jg     1025b9 <vsprintf+0xbf>
  102582:	eb 21                	jmp    1025a5 <vsprintf+0xab>
  102584:	8b 55 dc             	mov    -0x24(%ebp),%edx
  102587:	89 d0                	mov    %edx,%eax
  102589:	c1 e0 02             	shl    $0x2,%eax
  10258c:	01 d0                	add    %edx,%eax
  10258e:	01 c0                	add    %eax,%eax
  102590:	89 c2                	mov    %eax,%edx
  102592:	8b 45 0c             	mov    0xc(%ebp),%eax
  102595:	8a 00                	mov    (%eax),%al
  102597:	0f be c0             	movsbl %al,%eax
  10259a:	01 d0                	add    %edx,%eax
  10259c:	83 e8 30             	sub    $0x30,%eax
  10259f:	89 45 dc             	mov    %eax,-0x24(%ebp)
  1025a2:	ff 45 0c             	incl   0xc(%ebp)
  1025a5:	8b 45 0c             	mov    0xc(%ebp),%eax
  1025a8:	8a 00                	mov    (%eax),%al
  1025aa:	3c 2f                	cmp    $0x2f,%al
  1025ac:	7e 27                	jle    1025d5 <vsprintf+0xdb>
  1025ae:	8b 45 0c             	mov    0xc(%ebp),%eax
  1025b1:	8a 00                	mov    (%eax),%al
  1025b3:	3c 39                	cmp    $0x39,%al
  1025b5:	7e cd                	jle    102584 <vsprintf+0x8a>
  1025b7:	eb 1c                	jmp    1025d5 <vsprintf+0xdb>
  1025b9:	8b 45 0c             	mov    0xc(%ebp),%eax
  1025bc:	8a 00                	mov    (%eax),%al
  1025be:	3c 2a                	cmp    $0x2a,%al
  1025c0:	75 14                	jne    1025d6 <vsprintf+0xdc>
  1025c2:	ff 45 0c             	incl   0xc(%ebp)
  1025c5:	8b 45 10             	mov    0x10(%ebp),%eax
  1025c8:	8d 50 04             	lea    0x4(%eax),%edx
  1025cb:	89 55 10             	mov    %edx,0x10(%ebp)
  1025ce:	8b 00                	mov    (%eax),%eax
  1025d0:	89 45 dc             	mov    %eax,-0x24(%ebp)
  1025d3:	eb 01                	jmp    1025d6 <vsprintf+0xdc>
  1025d5:	90                   	nop
  1025d6:	8b 45 0c             	mov    0xc(%ebp),%eax
  1025d9:	8a 00                	mov    (%eax),%al
  1025db:	0f be c0             	movsbl %al,%eax
  1025de:	83 f8 64             	cmp    $0x64,%eax
  1025e1:	74 53                	je     102636 <vsprintf+0x13c>
  1025e3:	83 f8 73             	cmp    $0x73,%eax
  1025e6:	75 4f                	jne    102637 <vsprintf+0x13d>
  1025e8:	8b 45 10             	mov    0x10(%ebp),%eax
  1025eb:	8d 50 04             	lea    0x4(%eax),%edx
  1025ee:	89 55 10             	mov    %edx,0x10(%ebp)
  1025f1:	8b 00                	mov    (%eax),%eax
  1025f3:	89 45 f0             	mov    %eax,-0x10(%ebp)
  1025f6:	83 ec 0c             	sub    $0xc,%esp
  1025f9:	ff 75 f0             	pushl  -0x10(%ebp)
  1025fc:	e8 41 01 00 00       	call   102742 <strlen>
  102601:	83 c4 10             	add    $0x10,%esp
  102604:	89 45 d8             	mov    %eax,-0x28(%ebp)
  102607:	c7 45 ec 00 00 00 00 	movl   $0x0,-0x14(%ebp)
  10260e:	eb 19                	jmp    102629 <vsprintf+0x12f>
  102610:	8b 55 f0             	mov    -0x10(%ebp),%edx
  102613:	8d 42 01             	lea    0x1(%edx),%eax
  102616:	89 45 f0             	mov    %eax,-0x10(%ebp)
  102619:	8b 45 f4             	mov    -0xc(%ebp),%eax
  10261c:	8d 48 01             	lea    0x1(%eax),%ecx
  10261f:	89 4d f4             	mov    %ecx,-0xc(%ebp)
  102622:	8a 12                	mov    (%edx),%dl
  102624:	88 10                	mov    %dl,(%eax)
  102626:	ff 45 ec             	incl   -0x14(%ebp)
  102629:	8b 45 ec             	mov    -0x14(%ebp),%eax
  10262c:	3b 45 d8             	cmp    -0x28(%ebp),%eax
  10262f:	7c df                	jl     102610 <vsprintf+0x116>
  102631:	e9 ef 00 00 00       	jmp    102725 <vsprintf+0x22b>
  102636:	90                   	nop
  102637:	8b 45 10             	mov    0x10(%ebp),%eax
  10263a:	8d 50 04             	lea    0x4(%eax),%edx
  10263d:	89 55 10             	mov    %edx,0x10(%ebp)
  102640:	8b 00                	mov    (%eax),%eax
  102642:	89 45 e4             	mov    %eax,-0x1c(%ebp)
  102645:	c7 45 e8 00 00 00 00 	movl   $0x0,-0x18(%ebp)
  10264c:	83 7d e4 00          	cmpl   $0x0,-0x1c(%ebp)
  102650:	75 13                	jne    102665 <vsprintf+0x16b>
  102652:	8b 45 e8             	mov    -0x18(%ebp),%eax
  102655:	8d 50 01             	lea    0x1(%eax),%edx
  102658:	89 55 e8             	mov    %edx,-0x18(%ebp)
  10265b:	c6 84 05 73 ff ff ff 	movb   $0x30,-0x8d(%ebp,%eax,1)
  102662:	30 
  102663:	eb 58                	jmp    1026bd <vsprintf+0x1c3>
  102665:	83 7d e4 00          	cmpl   $0x0,-0x1c(%ebp)
  102669:	79 4c                	jns    1026b7 <vsprintf+0x1bd>
  10266b:	8b 45 f4             	mov    -0xc(%ebp),%eax
  10266e:	8d 50 01             	lea    0x1(%eax),%edx
  102671:	89 55 f4             	mov    %edx,-0xc(%ebp)
  102674:	c6 00 2d             	movb   $0x2d,(%eax)
  102677:	f7 5d e4             	negl   -0x1c(%ebp)
  10267a:	eb 3b                	jmp    1026b7 <vsprintf+0x1bd>
  10267c:	8b 45 e4             	mov    -0x1c(%ebp),%eax
  10267f:	b9 0a 00 00 00       	mov    $0xa,%ecx
  102684:	99                   	cltd   
  102685:	f7 f9                	idiv   %ecx
  102687:	89 d0                	mov    %edx,%eax
  102689:	8d 48 30             	lea    0x30(%eax),%ecx
  10268c:	8b 45 e8             	mov    -0x18(%ebp),%eax
  10268f:	8d 50 01             	lea    0x1(%eax),%edx
  102692:	89 55 e8             	mov    %edx,-0x18(%ebp)
  102695:	88 ca                	mov    %cl,%dl
  102697:	88 94 05 73 ff ff ff 	mov    %dl,-0x8d(%ebp,%eax,1)
  10269e:	8b 4d e4             	mov    -0x1c(%ebp),%ecx
  1026a1:	b8 67 66 66 66       	mov    $0x66666667,%eax
  1026a6:	f7 e9                	imul   %ecx
  1026a8:	c1 fa 02             	sar    $0x2,%edx
  1026ab:	89 c8                	mov    %ecx,%eax
  1026ad:	c1 f8 1f             	sar    $0x1f,%eax
  1026b0:	29 c2                	sub    %eax,%edx
  1026b2:	89 d0                	mov    %edx,%eax
  1026b4:	89 45 e4             	mov    %eax,-0x1c(%ebp)
  1026b7:	83 7d e4 00          	cmpl   $0x0,-0x1c(%ebp)
  1026bb:	75 bf                	jne    10267c <vsprintf+0x182>
  1026bd:	8b 45 e8             	mov    -0x18(%ebp),%eax
  1026c0:	3b 45 dc             	cmp    -0x24(%ebp),%eax
  1026c3:	7d 53                	jge    102718 <vsprintf+0x21e>
  1026c5:	8b 45 dc             	mov    -0x24(%ebp),%eax
  1026c8:	2b 45 e8             	sub    -0x18(%ebp),%eax
  1026cb:	89 45 e4             	mov    %eax,-0x1c(%ebp)
  1026ce:	8b 45 e0             	mov    -0x20(%ebp),%eax
  1026d1:	83 e0 01             	and    $0x1,%eax
  1026d4:	85 c0                	test   %eax,%eax
  1026d6:	74 04                	je     1026dc <vsprintf+0x1e2>
  1026d8:	b0 30                	mov    $0x30,%al
  1026da:	eb 02                	jmp    1026de <vsprintf+0x1e4>
  1026dc:	b0 20                	mov    $0x20,%al
  1026de:	88 45 d7             	mov    %al,-0x29(%ebp)
  1026e1:	eb 0e                	jmp    1026f1 <vsprintf+0x1f7>
  1026e3:	8b 45 f4             	mov    -0xc(%ebp),%eax
  1026e6:	8d 50 01             	lea    0x1(%eax),%edx
  1026e9:	89 55 f4             	mov    %edx,-0xc(%ebp)
  1026ec:	8a 55 d7             	mov    -0x29(%ebp),%dl
  1026ef:	88 10                	mov    %dl,(%eax)
  1026f1:	8b 45 e4             	mov    -0x1c(%ebp),%eax
  1026f4:	8d 50 ff             	lea    -0x1(%eax),%edx
  1026f7:	89 55 e4             	mov    %edx,-0x1c(%ebp)
  1026fa:	85 c0                	test   %eax,%eax
  1026fc:	75 e5                	jne    1026e3 <vsprintf+0x1e9>
  1026fe:	eb 18                	jmp    102718 <vsprintf+0x21e>
  102700:	8b 45 f4             	mov    -0xc(%ebp),%eax
  102703:	8d 50 01             	lea    0x1(%eax),%edx
  102706:	89 55 f4             	mov    %edx,-0xc(%ebp)
  102709:	8d 8d 73 ff ff ff    	lea    -0x8d(%ebp),%ecx
  10270f:	8b 55 e8             	mov    -0x18(%ebp),%edx
  102712:	01 ca                	add    %ecx,%edx
  102714:	8a 12                	mov    (%edx),%dl
  102716:	88 10                	mov    %dl,(%eax)
  102718:	8b 45 e8             	mov    -0x18(%ebp),%eax
  10271b:	8d 50 ff             	lea    -0x1(%eax),%edx
  10271e:	89 55 e8             	mov    %edx,-0x18(%ebp)
  102721:	85 c0                	test   %eax,%eax
  102723:	75 db                	jne    102700 <vsprintf+0x206>
  102725:	ff 45 0c             	incl   0xc(%ebp)
  102728:	8b 45 0c             	mov    0xc(%ebp),%eax
  10272b:	8a 00                	mov    (%eax),%al
  10272d:	84 c0                	test   %al,%al
  10272f:	0f 85 d9 fd ff ff    	jne    10250e <vsprintf+0x14>
  102735:	8b 45 f4             	mov    -0xc(%ebp),%eax
  102738:	c6 00 00             	movb   $0x0,(%eax)
  10273b:	b8 00 00 00 00       	mov    $0x0,%eax
  102740:	c9                   	leave  
  102741:	c3                   	ret    

00102742 <strlen>:
  102742:	55                   	push   %ebp
  102743:	89 e5                	mov    %esp,%ebp
  102745:	83 ec 10             	sub    $0x10,%esp
  102748:	c7 45 fc 00 00 00 00 	movl   $0x0,-0x4(%ebp)
  10274f:	eb 03                	jmp    102754 <strlen+0x12>
  102751:	ff 45 fc             	incl   -0x4(%ebp)
  102754:	8b 55 08             	mov    0x8(%ebp),%edx
  102757:	8b 45 fc             	mov    -0x4(%ebp),%eax
  10275a:	01 d0                	add    %edx,%eax
  10275c:	8a 00                	mov    (%eax),%al
  10275e:	84 c0                	test   %al,%al
  102760:	75 ef                	jne    102751 <strlen+0xf>
  102762:	8b 45 fc             	mov    -0x4(%ebp),%eax
  102765:	c9                   	leave  
  102766:	c3                   	ret    

00102767 <getdev>:
  102767:	55                   	push   %ebp
  102768:	89 e5                	mov    %esp,%ebp
  10276a:	83 ec 18             	sub    $0x18,%esp
  10276d:	8b 45 08             	mov    0x8(%ebp),%eax
  102770:	8b 00                	mov    (%eax),%eax
  102772:	85 c0                	test   %eax,%eax
  102774:	74 07                	je     10277d <getdev+0x16>
  102776:	8b 45 08             	mov    0x8(%ebp),%eax
  102779:	8b 00                	mov    (%eax),%eax
  10277b:	eb 5c                	jmp    1027d9 <getdev+0x72>
  10277d:	c7 45 f4 01 00 00 00 	movl   $0x1,-0xc(%ebp)
  102784:	83 ec 0c             	sub    $0xc,%esp
  102787:	ff 75 f4             	pushl  -0xc(%ebp)
  10278a:	e8 c3 00 00 00       	call   102852 <_device>
  10278f:	83 c4 10             	add    $0x10,%esp
  102792:	89 45 f0             	mov    %eax,-0x10(%ebp)
  102795:	8b 45 f0             	mov    -0x10(%ebp),%eax
  102798:	8b 00                	mov    (%eax),%eax
  10279a:	39 45 0c             	cmp    %eax,0xc(%ebp)
  10279d:	75 0d                	jne    1027ac <getdev+0x45>
  10279f:	8b 45 08             	mov    0x8(%ebp),%eax
  1027a2:	8b 55 f0             	mov    -0x10(%ebp),%edx
  1027a5:	89 10                	mov    %edx,(%eax)
  1027a7:	8b 45 f0             	mov    -0x10(%ebp),%eax
  1027aa:	eb 2d                	jmp    1027d9 <getdev+0x72>
  1027ac:	83 7d f0 00          	cmpl   $0x0,-0x10(%ebp)
  1027b0:	74 05                	je     1027b7 <getdev+0x50>
  1027b2:	ff 45 f4             	incl   -0xc(%ebp)
  1027b5:	eb cd                	jmp    102784 <getdev+0x1d>
  1027b7:	90                   	nop
  1027b8:	83 ec 04             	sub    $0x4,%esp
  1027bb:	6a 0e                	push   $0xe
  1027bd:	68 8c 2e 10 00       	push   $0x102e8c
  1027c2:	68 95 2e 10 00       	push   $0x102e95
  1027c7:	e8 ba fc ff ff       	call   102486 <printf>
  1027cc:	83 c4 10             	add    $0x10,%esp
  1027cf:	83 ec 0c             	sub    $0xc,%esp
  1027d2:	6a 01                	push   $0x1
  1027d4:	e8 9d d8 ff ff       	call   100076 <_halt>
  1027d9:	c9                   	leave  
  1027da:	c3                   	ret    

001027db <uptime>:
  1027db:	55                   	push   %ebp
  1027dc:	89 e5                	mov    %esp,%ebp
  1027de:	83 ec 18             	sub    $0x18,%esp
  1027e1:	83 ec 08             	sub    $0x8,%esp
  1027e4:	68 03 ac 00 00       	push   $0xac03
  1027e9:	68 ec 2f 10 00       	push   $0x102fec
  1027ee:	e8 74 ff ff ff       	call   102767 <getdev>
  1027f3:	83 c4 10             	add    $0x10,%esp
  1027f6:	89 45 f4             	mov    %eax,-0xc(%ebp)
  1027f9:	8b 45 f4             	mov    -0xc(%ebp),%eax
  1027fc:	8b 40 08             	mov    0x8(%eax),%eax
  1027ff:	83 ec 04             	sub    $0x4,%esp
  102802:	6a 08                	push   $0x8
  102804:	8d 55 ec             	lea    -0x14(%ebp),%edx
  102807:	52                   	push   %edx
  102808:	6a 01                	push   $0x1
  10280a:	ff d0                	call   *%eax
  10280c:	83 c4 10             	add    $0x10,%esp
  10280f:	8b 45 f0             	mov    -0x10(%ebp),%eax
  102812:	c9                   	leave  
  102813:	c3                   	ret    

00102814 <no_write>:
  102814:	55                   	push   %ebp
  102815:	89 e5                	mov    %esp,%ebp
  102817:	83 ec 08             	sub    $0x8,%esp
  10281a:	83 ec 04             	sub    $0x4,%esp
  10281d:	6a 0b                	push   $0xb
  10281f:	68 ae 2e 10 00       	push   $0x102eae
  102824:	68 c6 2e 10 00       	push   $0x102ec6
  102829:	e8 58 fc ff ff       	call   102486 <printf>
  10282e:	83 c4 10             	add    $0x10,%esp
  102831:	83 ec 0c             	sub    $0xc,%esp
  102834:	6a 01                	push   $0x1
  102836:	e8 3b d8 ff ff       	call   100076 <_halt>

0010283b <_ioe_init>:
  10283b:	55                   	push   %ebp
  10283c:	89 e5                	mov    %esp,%ebp
  10283e:	83 ec 08             	sub    $0x8,%esp
  102841:	e8 8a 01 00 00       	call   1029d0 <vga_init>
  102846:	e8 2c 01 00 00       	call   102977 <timer_init>
  10284b:	b8 00 00 00 00       	mov    $0x0,%eax
  102850:	c9                   	leave  
  102851:	c3                   	ret    

00102852 <_device>:
  102852:	55                   	push   %ebp
  102853:	89 e5                	mov    %esp,%ebp
  102855:	ff 4d 08             	decl   0x8(%ebp)
  102858:	83 7d 08 00          	cmpl   $0x0,0x8(%ebp)
  10285c:	78 15                	js     102873 <_device+0x21>
  10285e:	8b 45 08             	mov    0x8(%ebp),%eax
  102861:	83 f8 02             	cmp    $0x2,%eax
  102864:	77 0d                	ja     102873 <_device+0x21>
  102866:	8b 45 08             	mov    0x8(%ebp),%eax
  102869:	c1 e0 04             	shl    $0x4,%eax
  10286c:	05 a0 2f 10 00       	add    $0x102fa0,%eax
  102871:	eb 05                	jmp    102878 <_device+0x26>
  102873:	b8 00 00 00 00       	mov    $0x0,%eax
  102878:	5d                   	pop    %ebp
  102879:	c3                   	ret    

0010287a <input_read>:
  10287a:	55                   	push   %ebp
  10287b:	89 e5                	mov    %esp,%ebp
  10287d:	83 ec 10             	sub    $0x10,%esp
  102880:	83 7d 08 01          	cmpl   $0x1,0x8(%ebp)
  102884:	75 20                	jne    1028a6 <input_read+0x2c>
  102886:	8b 45 0c             	mov    0xc(%ebp),%eax
  102889:	89 45 fc             	mov    %eax,-0x4(%ebp)
  10288c:	8b 45 fc             	mov    -0x4(%ebp),%eax
  10288f:	c7 00 00 00 00 00    	movl   $0x0,(%eax)
  102895:	8b 45 fc             	mov    -0x4(%ebp),%eax
  102898:	c7 40 04 00 00 00 00 	movl   $0x0,0x4(%eax)
  10289f:	b8 08 00 00 00       	mov    $0x8,%eax
  1028a4:	eb 05                	jmp    1028ab <input_read+0x31>
  1028a6:	b8 00 00 00 00       	mov    $0x0,%eax
  1028ab:	c9                   	leave  
  1028ac:	c3                   	ret    

001028ad <inl>:
  1028ad:	55                   	push   %ebp
  1028ae:	89 e5                	mov    %esp,%ebp
  1028b0:	83 ec 10             	sub    $0x10,%esp
  1028b3:	8b 45 08             	mov    0x8(%ebp),%eax
  1028b6:	89 c2                	mov    %eax,%edx
  1028b8:	ed                   	in     (%dx),%eax
  1028b9:	89 45 fc             	mov    %eax,-0x4(%ebp)
  1028bc:	8b 45 fc             	mov    -0x4(%ebp),%eax
  1028bf:	c9                   	leave  
  1028c0:	c3                   	ret    

001028c1 <timer_read>:
  1028c1:	55                   	push   %ebp
  1028c2:	89 e5                	mov    %esp,%ebp
  1028c4:	83 ec 10             	sub    $0x10,%esp
  1028c7:	83 7d 08 01          	cmpl   $0x1,0x8(%ebp)
  1028cb:	74 0b                	je     1028d8 <timer_read+0x17>
  1028cd:	83 7d 08 02          	cmpl   $0x2,0x8(%ebp)
  1028d1:	74 55                	je     102928 <timer_read+0x67>
  1028d3:	e9 98 00 00 00       	jmp    102970 <timer_read+0xaf>
  1028d8:	8b 45 0c             	mov    0xc(%ebp),%eax
  1028db:	89 45 f8             	mov    %eax,-0x8(%ebp)
  1028de:	6a 48                	push   $0x48
  1028e0:	e8 c8 ff ff ff       	call   1028ad <inl>
  1028e5:	83 c4 04             	add    $0x4,%esp
  1028e8:	ba 00 00 00 00       	mov    $0x0,%edx
  1028ed:	a3 d8 37 10 00       	mov    %eax,0x1037d8
  1028f2:	89 15 dc 37 10 00    	mov    %edx,0x1037dc
  1028f8:	a1 d8 37 10 00       	mov    0x1037d8,%eax
  1028fd:	8b 15 dc 37 10 00    	mov    0x1037dc,%edx
  102903:	89 d0                	mov    %edx,%eax
  102905:	31 d2                	xor    %edx,%edx
  102907:	89 c2                	mov    %eax,%edx
  102909:	8b 45 f8             	mov    -0x8(%ebp),%eax
  10290c:	89 10                	mov    %edx,(%eax)
  10290e:	a1 d8 37 10 00       	mov    0x1037d8,%eax
  102913:	8b 15 dc 37 10 00    	mov    0x1037dc,%edx
  102919:	89 c2                	mov    %eax,%edx
  10291b:	8b 45 f8             	mov    -0x8(%ebp),%eax
  10291e:	89 50 04             	mov    %edx,0x4(%eax)
  102921:	b8 08 00 00 00       	mov    $0x8,%eax
  102926:	eb 4d                	jmp    102975 <timer_read+0xb4>
  102928:	8b 45 0c             	mov    0xc(%ebp),%eax
  10292b:	89 45 fc             	mov    %eax,-0x4(%ebp)
  10292e:	8b 45 fc             	mov    -0x4(%ebp),%eax
  102931:	c7 40 14 00 00 00 00 	movl   $0x0,0x14(%eax)
  102938:	8b 45 fc             	mov    -0x4(%ebp),%eax
  10293b:	c7 40 10 00 00 00 00 	movl   $0x0,0x10(%eax)
  102942:	8b 45 fc             	mov    -0x4(%ebp),%eax
  102945:	c7 40 0c 00 00 00 00 	movl   $0x0,0xc(%eax)
  10294c:	8b 45 fc             	mov    -0x4(%ebp),%eax
  10294f:	c7 40 08 00 00 00 00 	movl   $0x0,0x8(%eax)
  102956:	8b 45 fc             	mov    -0x4(%ebp),%eax
  102959:	c7 40 04 00 00 00 00 	movl   $0x0,0x4(%eax)
  102960:	8b 45 fc             	mov    -0x4(%ebp),%eax
  102963:	c7 00 e2 07 00 00    	movl   $0x7e2,(%eax)
  102969:	b8 18 00 00 00       	mov    $0x18,%eax
  10296e:	eb 05                	jmp    102975 <timer_read+0xb4>
  102970:	b8 00 00 00 00       	mov    $0x0,%eax
  102975:	c9                   	leave  
  102976:	c3                   	ret    

00102977 <timer_init>:
  102977:	55                   	push   %ebp
  102978:	89 e5                	mov    %esp,%ebp
  10297a:	90                   	nop
  10297b:	5d                   	pop    %ebp
  10297c:	c3                   	ret    

0010297d <video_read>:
  10297d:	55                   	push   %ebp
  10297e:	89 e5                	mov    %esp,%ebp
  102980:	83 ec 10             	sub    $0x10,%esp
  102983:	83 7d 08 01          	cmpl   $0x1,0x8(%ebp)
  102987:	75 20                	jne    1029a9 <video_read+0x2c>
  102989:	8b 45 0c             	mov    0xc(%ebp),%eax
  10298c:	89 45 fc             	mov    %eax,-0x4(%ebp)
  10298f:	8b 45 fc             	mov    -0x4(%ebp),%eax
  102992:	c7 00 00 00 00 00    	movl   $0x0,(%eax)
  102998:	8b 45 fc             	mov    -0x4(%ebp),%eax
  10299b:	c7 40 04 00 00 00 00 	movl   $0x0,0x4(%eax)
  1029a2:	b8 08 00 00 00       	mov    $0x8,%eax
  1029a7:	eb 05                	jmp    1029ae <video_read+0x31>
  1029a9:	b8 00 00 00 00       	mov    $0x0,%eax
  1029ae:	c9                   	leave  
  1029af:	c3                   	ret    

001029b0 <video_write>:
  1029b0:	55                   	push   %ebp
  1029b1:	89 e5                	mov    %esp,%ebp
  1029b3:	83 ec 10             	sub    $0x10,%esp
  1029b6:	83 7d 08 02          	cmpl   $0x2,0x8(%ebp)
  1029ba:	75 0d                	jne    1029c9 <video_write+0x19>
  1029bc:	8b 45 0c             	mov    0xc(%ebp),%eax
  1029bf:	89 45 fc             	mov    %eax,-0x4(%ebp)
  1029c2:	b8 18 00 00 00       	mov    $0x18,%eax
  1029c7:	eb 05                	jmp    1029ce <video_write+0x1e>
  1029c9:	b8 00 00 00 00       	mov    $0x0,%eax
  1029ce:	c9                   	leave  
  1029cf:	c3                   	ret    

001029d0 <vga_init>:
  1029d0:	55                   	push   %ebp
  1029d1:	89 e5                	mov    %esp,%ebp
  1029d3:	90                   	nop
  1029d4:	5d                   	pop    %ebp
  1029d5:	c3                   	ret    
